(imatplotlib.font_manager
FontManager
p1
(dp2
S'afm_lookup_cache'
p3
(dp4
sS'ttflist'
p5
(lp6
ccopy_reg
_reconstructor
p7
(cmatplotlib.font_manager
FontEntry
p8
c__builtin__
object
p9
NtRp10
(dp11
S'style'
p12
S'normal'
p13
sS'name'
p14
S'cmss10'
p15
sS'weight'
p16
I400
sS'stretch'
p17
g13
sS'variant'
p18
g13
sS'fname'
p19
S'/home/wstein/sage/build/sage-5.6/local/lib/python2.7/site-packages/matplotlib/mpl-data/fonts/ttf/cmss10.ttf'
p20
sS'size'
p21
S'scalable'
p22
sbag7
(g8
g9
NtRp23
(dp24
g12
g13
sg14
S'cmb10'
p25
sg16
I400
sg17
g13
sg18
g13
sg19
S'/home/wstein/sage/build/sage-5.6/local/lib/python2.7/site-packages/matplotlib/mpl-data/fonts/ttf/cmb10.ttf'
p26
sg21
g22
sbag7
(g8
g9
NtRp27
(dp28
g12
g13
sg14
S'cmtt10'
p29
sg16
I400
sg17
g13
sg18
g13
sg19
S'/home/wstein/sage/build/sage-5.6/local/lib/python2.7/site-packages/matplotlib/mpl-data/fonts/ttf/cmtt10.ttf'
p30
sg21
g22
sbag7
(g8
g9
NtRp31
(dp32
g12
g13
sg14
S'STIXSizeTwoSym'
p33
sg16
I700
sg17
g13
sg18
g13
sg19
S'/home/wstein/sage/build/sage-5.6/local/lib/python2.7/site-packages/matplotlib/mpl-data/fonts/ttf/STIXSizTwoSymBol.ttf'
p34
sg21
g22
sbag7
(g8
g9
NtRp35
(dp36
g12
g13
sg14
S'Bitstream Vera Sans Mono'
p37
sg16
I700
sg17
g13
sg18
g13
sg19
S'/home/wstein/sage/build/sage-5.6/local/lib/python2.7/site-packages/matplotlib/mpl-data/fonts/ttf/VeraMoBd.ttf'
p38
sg21
g22
sbag7
(g8
g9
NtRp39
(dp40
g12
g13
sg14
S'cmr10'
p41
sg16
I400
sg17
g13
sg18
g13
sg19
S'/home/wstein/sage/build/sage-5.6/local/lib/python2.7/site-packages/matplotlib/mpl-data/fonts/ttf/cmr10.ttf'
p42
sg21
g22
sbag7
(g8
g9
NtRp43
(dp44
g12
g13
sg14
S'STIXSizeFourSym'
p45
sg16
I700
sg17
g13
sg18
g13
sg19
S'/home/wstein/sage/build/sage-5.6/local/lib/python2.7/site-packages/matplotlib/mpl-data/fonts/ttf/STIXSizFourSymBol.ttf'
p46
sg21
g22
sbag7
(g8
g9
NtRp47
(dp48
g12
S'italic'
p49
sg14
S'STIXGeneral'
p50
sg16
I700
sg17
g13
sg18
g13
sg19
S'/home/wstein/sage/build/sage-5.6/local/lib/python2.7/site-packages/matplotlib/mpl-data/fonts/ttf/STIXGeneralBolIta.ttf'
p51
sg21
g22
sbag7
(g8
g9
NtRp52
(dp53
g12
S'oblique'
p54
sg14
S'Bitstream Vera Sans'
p55
sg16
I700
sg17
g13
sg18
g13
sg19
S'/home/wstein/sage/build/sage-5.6/local/lib/python2.7/site-packages/matplotlib/mpl-data/fonts/ttf/VeraBI.ttf'
p56
sg21
g22
sbag7
(g8
g9
NtRp57
(dp58
g12
g13
sg14
S'STIXNonUnicode'
p59
sg16
I700
sg17
g13
sg18
g13
sg19
S'/home/wstein/sage/build/sage-5.6/local/lib/python2.7/site-packages/matplotlib/mpl-data/fonts/ttf/STIXNonUniBol.ttf'
p60
sg21
g22
sbag7
(g8
g9
NtRp61
(dp62
g12
g13
sg14
S'STIXSizeFourSym'
p63
sg16
I400
sg17
g13
sg18
g13
sg19
S'/home/wstein/sage/build/sage-5.6/local/lib/python2.7/site-packages/matplotlib/mpl-data/fonts/ttf/STIXSizFourSymReg.ttf'
p64
sg21
g22
sbag7
(g8
g9
NtRp65
(dp66
g12
g13
sg14
S'STIXSizeThreeSym'
p67
sg16
I700
sg17
g13
sg18
g13
sg19
S'/home/wstein/sage/build/sage-5.6/local/lib/python2.7/site-packages/matplotlib/mpl-data/fonts/ttf/STIXSizThreeSymBol.ttf'
p68
sg21
g22
sbag7
(g8
g9
NtRp69
(dp70
g12
g49
sg14
S'STIXNonUnicode'
p71
sg16
I400
sg17
g13
sg18
g13
sg19
S'/home/wstein/sage/build/sage-5.6/local/lib/python2.7/site-packages/matplotlib/mpl-data/fonts/ttf/STIXNonUniIta.ttf'
p72
sg21
g22
sbag7
(g8
g9
NtRp73
(dp74
g12
g54
sg14
S'Bitstream Vera Sans Mono'
p75
sg16
I400
sg17
g13
sg18
g13
sg19
S'/home/wstein/sage/build/sage-5.6/local/lib/python2.7/site-packages/matplotlib/mpl-data/fonts/ttf/VeraMoIt.ttf'
p76
sg21
g22
sbag7
(g8
g9
NtRp77
(dp78
g12
g13
sg14
S'STIXSizeFiveSym'
p79
sg16
I400
sg17
g13
sg18
g13
sg19
S'/home/wstein/sage/build/sage-5.6/local/lib/python2.7/site-packages/matplotlib/mpl-data/fonts/ttf/STIXSizFiveSymReg.ttf'
p80
sg21
g22
sbag7
(g8
g9
NtRp81
(dp82
g12
g13
sg14
S'Bitstream Vera Sans Mono'
p83
sg16
I400
sg17
g13
sg18
g13
sg19
S'/home/wstein/sage/build/sage-5.6/local/lib/python2.7/site-packages/matplotlib/mpl-data/fonts/ttf/VeraMono.ttf'
p84
sg21
g22
sbag7
(g8
g9
NtRp85
(dp86
g12
g54
sg14
S'Bitstream Vera Sans Mono'
p87
sg16
I700
sg17
g13
sg18
g13
sg19
S'/home/wstein/sage/build/sage-5.6/local/lib/python2.7/site-packages/matplotlib/mpl-data/fonts/ttf/VeraMoBI.ttf'
p88
sg21
g22
sbag7
(g8
g9
NtRp89
(dp90
g12
g13
sg14
S'STIXSizeOneSym'
p91
sg16
I700
sg17
g13
sg18
g13
sg19
S'/home/wstein/sage/build/sage-5.6/local/lib/python2.7/site-packages/matplotlib/mpl-data/fonts/ttf/STIXSizOneSymBol.ttf'
p92
sg21
g22
sbag7
(g8
g9
NtRp93
(dp94
g12
g13
sg14
S'Bitstream Vera Sans'
p95
sg16
I700
sg17
g13
sg18
g13
sg19
S'/home/wstein/sage/build/sage-5.6/local/lib/python2.7/site-packages/matplotlib/mpl-data/fonts/ttf/VeraBd.ttf'
p96
sg21
g22
sbag7
(g8
g9
NtRp97
(dp98
g12
g13
sg14
S'Bitstream Vera Serif'
p99
sg16
I700
sg17
g13
sg18
g13
sg19
S'/home/wstein/sage/build/sage-5.6/local/lib/python2.7/site-packages/matplotlib/mpl-data/fonts/ttf/VeraSeBd.ttf'
p100
sg21
g22
sbag7
(g8
g9
NtRp101
(dp102
g12
g13
sg14
S'STIXSizeTwoSym'
p103
sg16
I400
sg17
g13
sg18
g13
sg19
S'/home/wstein/sage/build/sage-5.6/local/lib/python2.7/site-packages/matplotlib/mpl-data/fonts/ttf/STIXSizTwoSymReg.ttf'
p104
sg21
g22
sbag7
(g8
g9
NtRp105
(dp106
g12
g13
sg14
S'cmex10'
p107
sg16
I400
sg17
g13
sg18
g13
sg19
S'/home/wstein/sage/build/sage-5.6/local/lib/python2.7/site-packages/matplotlib/mpl-data/fonts/ttf/cmex10.ttf'
p108
sg21
g22
sbag7
(g8
g9
NtRp109
(dp110
g12
g13
sg14
S'cmmi10'
p111
sg16
I400
sg17
g13
sg18
g13
sg19
S'/home/wstein/sage/build/sage-5.6/local/lib/python2.7/site-packages/matplotlib/mpl-data/fonts/ttf/cmmi10.ttf'
p112
sg21
g22
sbag7
(g8
g9
NtRp113
(dp114
g12
g13
sg14
S'Bitstream Vera Sans'
p115
sg16
I400
sg17
g13
sg18
g13
sg19
S'/home/wstein/sage/build/sage-5.6/local/lib/python2.7/site-packages/matplotlib/mpl-data/fonts/ttf/Vera.ttf'
p116
sg21
g22
sbag7
(g8
g9
NtRp117
(dp118
g12
g54
sg14
S'Bitstream Vera Sans'
p119
sg16
I400
sg17
g13
sg18
g13
sg19
S'/home/wstein/sage/build/sage-5.6/local/lib/python2.7/site-packages/matplotlib/mpl-data/fonts/ttf/VeraIt.ttf'
p120
sg21
g22
sbag7
(g8
g9
NtRp121
(dp122
g12
g13
sg14
S'Bitstream Vera Serif'
p123
sg16
I400
sg17
g13
sg18
g13
sg19
S'/home/wstein/sage/build/sage-5.6/local/lib/python2.7/site-packages/matplotlib/mpl-data/fonts/ttf/VeraSe.ttf'
p124
sg21
g22
sbag7
(g8
g9
NtRp125
(dp126
g12
g13
sg14
S'STIXSizeOneSym'
p127
sg16
I400
sg17
g13
sg18
g13
sg19
S'/home/wstein/sage/build/sage-5.6/local/lib/python2.7/site-packages/matplotlib/mpl-data/fonts/ttf/STIXSizOneSymReg.ttf'
p128
sg21
g22
sbag7
(g8
g9
NtRp129
(dp130
g12
g13
sg14
S'STIXGeneral'
p131
sg16
I700
sg17
g13
sg18
g13
sg19
S'/home/wstein/sage/build/sage-5.6/local/lib/python2.7/site-packages/matplotlib/mpl-data/fonts/ttf/STIXGeneralBol.ttf'
p132
sg21
g22
sbag7
(g8
g9
NtRp133
(dp134
g12
g13
sg14
S'STIXGeneral'
p135
sg16
I400
sg17
g13
sg18
g13
sg19
S'/home/wstein/sage/build/sage-5.6/local/lib/python2.7/site-packages/matplotlib/mpl-data/fonts/ttf/STIXGeneral.ttf'
p136
sg21
g22
sbag7
(g8
g9
NtRp137
(dp138
g12
g13
sg14
S'STIXSizeThreeSym'
p139
sg16
I400
sg17
g13
sg18
g13
sg19
S'/home/wstein/sage/build/sage-5.6/local/lib/python2.7/site-packages/matplotlib/mpl-data/fonts/ttf/STIXSizThreeSymReg.ttf'
p140
sg21
g22
sbag7
(g8
g9
NtRp141
(dp142
g12
g13
sg14
S'STIXNonUnicode'
p143
sg16
I400
sg17
g13
sg18
g13
sg19
S'/home/wstein/sage/build/sage-5.6/local/lib/python2.7/site-packages/matplotlib/mpl-data/fonts/ttf/STIXNonUni.ttf'
p144
sg21
g22
sbag7
(g8
g9
NtRp145
(dp146
g12
g49
sg14
S'STIXNonUnicode'
p147
sg16
I700
sg17
g13
sg18
g13
sg19
S'/home/wstein/sage/build/sage-5.6/local/lib/python2.7/site-packages/matplotlib/mpl-data/fonts/ttf/STIXNonUniBolIta.ttf'
p148
sg21
g22
sbag7
(g8
g9
NtRp149
(dp150
g12
g13
sg14
S'cmsy10'
p151
sg16
I400
sg17
g13
sg18
g13
sg19
S'/home/wstein/sage/build/sage-5.6/local/lib/python2.7/site-packages/matplotlib/mpl-data/fonts/ttf/cmsy10.ttf'
p152
sg21
g22
sbag7
(g8
g9
NtRp153
(dp154
g12
g49
sg14
S'STIXGeneral'
p155
sg16
I400
sg17
g13
sg18
g13
sg19
S'/home/wstein/sage/build/sage-5.6/local/lib/python2.7/site-packages/matplotlib/mpl-data/fonts/ttf/STIXGeneralItalic.ttf'
p156
sg21
g22
sbag7
(g8
g9
NtRp157
(dp158
g12
g13
sg14
S'KacstTitle'
p159
sg16
I400
sg17
g13
sg18
g13
sg19
S'/usr/share/fonts/truetype/kacst/KacstTitle.ttf'
p160
sg21
g22
sbag7
(g8
g9
NtRp161
(dp162
g12
g54
sg14
S'Tlwg Typo'
p163
sg16
I400
sg17
g13
sg18
g13
sg19
S'/usr/share/fonts/truetype/tlwg/TlwgTypo-Oblique.ttf'
p164
sg21
g22
sbag7
(g8
g9
NtRp165
(dp166
g12
g13
sg14
S'Mallige'
p167
sg16
I700
sg17
g13
sg18
g13
sg19
S'/usr/share/fonts/truetype/ttf-indic-fonts-core/Malige-b.ttf'
p168
sg21
g22
sbag7
(g8
g9
NtRp169
(dp170
g12
g13
sg14
S'Ubuntu'
p171
sg16
I500
sg17
g13
sg18
g13
sg19
S'/usr/share/fonts/truetype/ubuntu-font-family/Ubuntu-M.ttf'
p172
sg21
g22
sbag7
(g8
g9
NtRp173
(dp174
g12
g13
sg14
S'Umpush'
p175
sg16
I400
sg17
g13
sg18
g13
sg19
S'/usr/share/fonts/truetype/tlwg/Umpush.ttf'
p176
sg21
g22
sbag7
(g8
g9
NtRp177
(dp178
g12
g13
sg14
S'Garuda'
p179
sg16
I700
sg17
g13
sg18
g13
sg19
S'/usr/share/fonts/truetype/tlwg/Garuda-Bold.ttf'
p180
sg21
g22
sbag7
(g8
g9
NtRp181
(dp182
g12
g54
sg14
S'Tlwg Typist'
p183
sg16
I700
sg17
g13
sg18
g13
sg19
S'/usr/share/fonts/truetype/tlwg/TlwgTypist-BoldOblique.ttf'
p184
sg21
g22
sbag7
(g8
g9
NtRp185
(dp186
g12
g13
sg14
S'FreeSerif'
p187
sg16
I400
sg17
g13
sg18
g13
sg19
S'/usr/share/fonts/truetype/freefont/FreeSerif.ttf'
p188
sg21
g22
sbag7
(g8
g9
NtRp189
(dp190
g12
g13
sg14
S'KacstScreen'
p191
sg16
I400
sg17
g13
sg18
g13
sg19
S'/usr/share/fonts/truetype/kacst/KacstScreen.ttf'
p192
sg21
g22
sbag7
(g8
g9
NtRp193
(dp194
g12
g13
sg14
S'DejaVu Sans'
p195
sg16
I400
sg17
S'condensed'
p196
sg18
g13
sg19
S'/usr/share/fonts/truetype/ttf-dejavu/DejaVuSansCondensed.ttf'
p197
sg21
g22
sbag7
(g8
g9
NtRp198
(dp199
g12
g54
sg14
S'Loma'
p200
sg16
I400
sg17
g13
sg18
g13
sg19
S'/usr/share/fonts/truetype/tlwg/Loma-Oblique.ttf'
p201
sg21
g22
sbag7
(g8
g9
NtRp202
(dp203
g12
g54
sg14
S'Norasi'
p204
sg16
I400
sg17
g13
sg18
g13
sg19
S'/usr/share/fonts/truetype/tlwg/Norasi-Oblique.ttf'
p205
sg21
g22
sbag7
(g8
g9
NtRp206
(dp207
g12
g13
sg14
S'DejaVu Sans Mono'
p208
sg16
I400
sg17
g13
sg18
g13
sg19
S'/usr/share/fonts/truetype/ttf-dejavu/DejaVuSansMono.ttf'
p209
sg21
g22
sbag7
(g8
g9
NtRp210
(dp211
g12
g13
sg14
S'Lohit Punjabi'
p212
sg16
I400
sg17
g13
sg18
g13
sg19
S'/usr/share/fonts/truetype/ttf-punjabi-fonts/lohit_pa.ttf'
p213
sg21
g22
sbag7
(g8
g9
NtRp214
(dp215
g12
g13
sg14
S'Meera'
p216
sg16
I400
sg17
g13
sg18
g13
sg19
S'/usr/share/fonts/truetype/ttf-indic-fonts-core/Meera_04.ttf'
p217
sg21
g22
sbag7
(g8
g9
NtRp218
(dp219
g12
g13
sg14
S'TakaoPGothic'
p220
sg16
I400
sg17
g13
sg18
g13
sg19
S'/usr/share/fonts/truetype/fonts-japanese-gothic.ttf'
p221
sg21
g22
sbag7
(g8
g9
NtRp222
(dp223
g12
g13
sg14
S'Liberation Mono'
p224
sg16
I700
sg17
g13
sg18
g13
sg19
S'/usr/share/fonts/truetype/liberation/LiberationMono-Bold.ttf'
p225
sg21
g22
sbag7
(g8
g9
NtRp226
(dp227
g12
g54
sg14
S'Umpush'
p228
sg16
I200
sg17
g13
sg18
g13
sg19
S'/usr/share/fonts/truetype/tlwg/Umpush-LightOblique.ttf'
p229
sg21
g22
sbag7
(g8
g9
NtRp230
(dp231
g12
g13
sg14
S'FreeSerif'
p232
sg16
I700
sg17
g13
sg18
g13
sg19
S'/usr/share/fonts/truetype/freefont/FreeSerifBold.ttf'
p233
sg21
g22
sbag7
(g8
g9
NtRp234
(dp235
g12
g54
sg14
S'FreeMono'
p236
sg16
I700
sg17
g13
sg18
g13
sg19
S'/usr/share/fonts/truetype/freefont/FreeMonoBoldOblique.ttf'
p237
sg21
g22
sbag7
(g8
g9
NtRp238
(dp239
g12
g13
sg14
S'Tlwg Typo'
p240
sg16
I400
sg17
g13
sg18
g13
sg19
S'/usr/share/fonts/truetype/tlwg/TlwgTypo.ttf'
p241
sg21
g22
sbag7
(g8
g9
NtRp242
(dp243
g12
g13
sg14
S'Padauk Book'
p244
sg16
I700
sg17
g13
sg18
g13
sg19
S'/usr/share/fonts/truetype/padauk/Padauk-bookbold.ttf'
p245
sg21
g22
sbag7
(g8
g9
NtRp246
(dp247
g12
g13
sg14
S'LKLUG'
p248
sg16
I400
sg17
g13
sg18
g13
sg19
S'/usr/share/fonts/truetype/sinhala/lklug.ttf'
p249
sg21
g22
sbag7
(g8
g9
NtRp250
(dp251
g12
g13
sg14
S'Rachana'
p252
sg16
I400
sg17
g13
sg18
g13
sg19
S'/usr/share/fonts/truetype/ttf-indic-fonts-core/Rachana_04.ttf'
p253
sg21
g22
sbag7
(g8
g9
NtRp254
(dp255
g12
g13
sg14
S'DejaVu Serif'
p256
sg16
I400
sg17
g13
sg18
g13
sg19
S'/usr/share/fonts/truetype/ttf-dejavu/DejaVuSerif.ttf'
p257
sg21
g22
sbag7
(g8
g9
NtRp258
(dp259
g12
g13
sg14
S'Liberation Sans Narrow'
p260
sg16
I700
sg17
g196
sg18
g13
sg19
S'/usr/share/fonts/truetype/liberation/LiberationSansNarrow-Bold.ttf'
p261
sg21
g22
sbag7
(g8
g9
NtRp262
(dp263
g12
g54
sg14
S'FreeSans'
p264
sg16
I400
sg17
g13
sg18
g13
sg19
S'/usr/share/fonts/truetype/freefont/FreeSansOblique.ttf'
p265
sg21
g22
sbag7
(g8
g9
NtRp266
(dp267
g12
g13
sg14
S'Liberation Sans'
p268
sg16
I700
sg17
g13
sg18
g13
sg19
S'/usr/share/fonts/truetype/liberation/LiberationSans-Bold.ttf'
p269
sg21
g22
sbag7
(g8
g9
NtRp270
(dp271
g12
g13
sg14
S'Lohit Hindi'
p272
sg16
I400
sg17
g13
sg18
g13
sg19
S'/usr/share/fonts/truetype/ttf-indic-fonts-core/lohit_hi.ttf'
p273
sg21
g22
sbag7
(g8
g9
NtRp274
(dp275
g12
g13
sg14
S'Liberation Mono'
p276
sg16
I400
sg17
g13
sg18
g13
sg19
S'/usr/share/fonts/truetype/liberation/LiberationMono-Regular.ttf'
p277
sg21
g22
sbag7
(g8
g9
NtRp278
(dp279
g12
g13
sg14
S'MarVoSym'
p280
sg16
I400
sg17
g13
sg18
g13
sg19
S'/usr/share/fonts/truetype/ttf-marvosym/marvosym.ttf'
p281
sg21
g22
sbag7
(g8
g9
NtRp282
(dp283
g12
g13
sg14
S'Ubuntu'
p284
sg16
I400
sg17
g13
sg18
g13
sg19
S'/usr/share/fonts/truetype/ubuntu-font-family/Ubuntu-R.ttf'
p285
sg21
g22
sbag7
(g8
g9
NtRp286
(dp287
g12
g13
sg14
S'Garuda'
p288
sg16
I400
sg17
g13
sg18
g13
sg19
S'/usr/share/fonts/truetype/tlwg/Garuda.ttf'
p289
sg21
g22
sbag7
(g8
g9
NtRp290
(dp291
g12
g54
sg14
S'DejaVu Sans'
p292
sg16
I700
sg17
g13
sg18
g13
sg19
S'/usr/share/fonts/truetype/ttf-dejavu/DejaVuSans-BoldOblique.ttf'
p293
sg21
g22
sbag7
(g8
g9
NtRp294
(dp295
g12
g13
sg14
S'Tlwg Typist'
p296
sg16
I400
sg17
g13
sg18
g13
sg19
S'/usr/share/fonts/truetype/tlwg/TlwgTypist.ttf'
p297
sg21
g22
sbag7
(g8
g9
NtRp298
(dp299
g12
g13
sg14
S'NanumGothic'
p300
sg16
I400
sg17
g13
sg18
g13
sg19
S'/usr/share/fonts/truetype/nanum/NanumGothic.ttf'
p301
sg21
g22
sbag7
(g8
g9
NtRp302
(dp303
g12
g13
sg14
S'mry_KacstQurn'
p304
sg16
I400
sg17
g13
sg18
g13
sg19
S'/usr/share/fonts/truetype/kacst/mry_KacstQurn.ttf'
p305
sg21
g22
sbag7
(g8
g9
NtRp306
(dp307
g12
g13
sg14
S'DejaVu Sans'
p308
sg16
I700
sg17
g196
sg18
g13
sg19
S'/usr/share/fonts/truetype/ttf-dejavu/DejaVuSansCondensed-Bold.ttf'
p309
sg21
g22
sbag7
(g8
g9
NtRp310
(dp311
g12
g13
sg14
S'TlwgMono'
p312
sg16
I700
sg17
g13
sg18
g13
sg19
S'/usr/share/fonts/truetype/tlwg/TlwgMono-Bold.ttf'
p313
sg21
g22
sbag7
(g8
g9
NtRp314
(dp315
g12
g49
sg14
S'Liberation Mono'
p316
sg16
I400
sg17
g13
sg18
g13
sg19
S'/usr/share/fonts/truetype/liberation/LiberationMono-Italic.ttf'
p317
sg21
g22
sbag7
(g8
g9
NtRp318
(dp319
g12
g13
sg14
S'Tibetan Machine Uni'
p320
sg16
I400
sg17
g13
sg18
g13
sg19
S'/usr/share/fonts/truetype/tibetan-machine/TibetanMachineUni.ttf'
p321
sg21
g22
sbag7
(g8
g9
NtRp322
(dp323
g12
g49
sg14
S'Liberation Serif'
p324
sg16
I700
sg17
g13
sg18
g13
sg19
S'/usr/share/fonts/truetype/liberation/LiberationSerif-BoldItalic.ttf'
p325
sg21
g22
sbag7
(g8
g9
NtRp326
(dp327
g12
g13
sg14
S'DejaVu Sans'
p328
sg16
I400
sg17
g13
sg18
g13
sg19
S'/usr/share/fonts/truetype/ttf-dejavu/DejaVuSans.ttf'
p329
sg21
g22
sbag7
(g8
g9
NtRp330
(dp331
g12
g13
sg14
S'Liberation Serif'
p332
sg16
I700
sg17
g13
sg18
g13
sg19
S'/usr/share/fonts/truetype/liberation/LiberationSerif-Bold.ttf'
p333
sg21
g22
sbag7
(g8
g9
NtRp334
(dp335
g12
g13
sg14
S'KacstOne'
p336
sg16
I700
sg17
g13
sg18
g13
sg19
S'/usr/share/fonts/truetype/kacst-one/KacstOne-Bold.ttf'
p337
sg21
g22
sbag7
(g8
g9
NtRp338
(dp339
g12
g13
sg14
S'NanumMyeongjo'
p340
sg16
I700
sg17
g13
sg18
g13
sg19
S'/usr/share/fonts/truetype/nanum/NanumMyeongjoBold.ttf'
p341
sg21
g22
sbag7
(g8
g9
NtRp342
(dp343
g12
g13
sg14
S'Waree'
p344
sg16
I700
sg17
g13
sg18
g13
sg19
S'/usr/share/fonts/truetype/tlwg/Waree-Bold.ttf'
p345
sg21
g22
sbag7
(g8
g9
NtRp346
(dp347
g12
g13
sg14
S'Phetsarath OT'
p348
sg16
I400
sg17
g13
sg18
g13
sg19
S'/usr/share/fonts/truetype/lao/Phetsarath_OT.ttf'
p349
sg21
g22
sbag7
(g8
g9
NtRp350
(dp351
g12
g54
sg14
S'DejaVu Sans'
p352
sg16
I400
sg17
g196
sg18
g13
sg19
S'/usr/share/fonts/truetype/ttf-dejavu/DejaVuSansCondensed-Oblique.ttf'
p353
sg21
g22
sbag7
(g8
g9
NtRp354
(dp355
g12
g13
sg14
S'ori1Uni'
p356
sg16
I500
sg17
g13
sg18
g13
sg19
S'/usr/share/fonts/truetype/ttf-indic-fonts-core/utkal.ttf'
p357
sg21
g22
sbag7
(g8
g9
NtRp358
(dp359
g12
g13
sg14
S'KacstQurn'
p360
sg16
I400
sg17
g13
sg18
g13
sg19
S'/usr/share/fonts/truetype/kacst/KacstQurn.ttf'
p361
sg21
g22
sbag7
(g8
g9
NtRp362
(dp363
g12
g13
sg14
S'Mukti Narrow'
p364
sg16
I400
sg17
g13
sg18
g13
sg19
S'/usr/share/fonts/truetype/ttf-indic-fonts-core/MuktiNarrow.ttf'
p365
sg21
g22
sbag7
(g8
g9
NtRp366
(dp367
g12
g13
sg14
S'TakaoPGothic'
p368
sg16
I400
sg17
g13
sg18
g13
sg19
S'/usr/share/fonts/truetype/takao-gothic/TakaoPGothic.ttf'
p369
sg21
g22
sbag7
(g8
g9
NtRp370
(dp371
g12
g49
sg14
S'DejaVu Serif'
p372
sg16
I700
sg17
g13
sg18
g13
sg19
S'/usr/share/fonts/truetype/ttf-dejavu/DejaVuSerif-BoldItalic.ttf'
p373
sg21
g22
sbag7
(g8
g9
NtRp374
(dp375
g12
g54
sg14
S'DejaVu Sans'
p376
sg16
I700
sg17
g196
sg18
g13
sg19
S'/usr/share/fonts/truetype/ttf-dejavu/DejaVuSansCondensed-BoldOblique.ttf'
p377
sg21
g22
sbag7
(g8
g9
NtRp378
(dp379
g12
g13
sg14
S'Kedage'
p380
sg16
I700
sg17
g13
sg18
g13
sg19
S'/usr/share/fonts/truetype/ttf-indic-fonts-core/Kedage-b.ttf'
p381
sg21
g22
sbag7
(g8
g9
NtRp382
(dp383
g12
g13
sg14
S'DejaVu Serif'
p384
sg16
I700
sg17
g13
sg18
g13
sg19
S'/usr/share/fonts/truetype/ttf-dejavu/DejaVuSerif-Bold.ttf'
p385
sg21
g22
sbag7
(g8
g9
NtRp386
(dp387
g12
g13
sg14
S'Ubuntu Mono'
p388
sg16
I400
sg17
g13
sg18
g13
sg19
S'/usr/share/fonts/truetype/ubuntu-font-family/UbuntuMono-R.ttf'
p389
sg21
g22
sbag7
(g8
g9
NtRp390
(dp391
g12
g54
sg14
S'Purisa'
p392
sg16
I700
sg17
g13
sg18
g13
sg19
S'/usr/share/fonts/truetype/tlwg/Purisa-BoldOblique.ttf'
p393
sg21
g22
sbag7
(g8
g9
NtRp394
(dp395
g12
g13
sg14
S'Norasi'
p396
sg16
I700
sg17
g13
sg18
g13
sg19
S'/usr/share/fonts/truetype/tlwg/Norasi-Bold.ttf'
p397
sg21
g22
sbag7
(g8
g9
NtRp398
(dp399
g12
g49
sg14
S'Norasi'
p400
sg16
I700
sg17
g13
sg18
g13
sg19
S'/usr/share/fonts/truetype/tlwg/Norasi-BoldItalic.ttf'
p401
sg21
g22
sbag7
(g8
g9
NtRp402
(dp403
g12
g13
sg14
S'Umpush'
p404
sg16
I700
sg17
g13
sg18
g13
sg19
S'/usr/share/fonts/truetype/tlwg/Umpush-Bold.ttf'
p405
sg21
g22
sbag7
(g8
g9
NtRp406
(dp407
g12
g54
sg14
S'Kinnari'
p408
sg16
I700
sg17
g13
sg18
g13
sg19
S'/usr/share/fonts/truetype/tlwg/Kinnari-BoldOblique.ttf'
p409
sg21
g22
sbag7
(g8
g9
NtRp410
(dp411
g12
g49
sg14
S'Liberation Sans'
p412
sg16
I700
sg17
g13
sg18
g13
sg19
S'/usr/share/fonts/truetype/liberation/LiberationSans-BoldItalic.ttf'
p413
sg21
g22
sbag7
(g8
g9
NtRp414
(dp415
g12
g13
sg14
S'Mallige'
p416
sg16
I400
sg17
g13
sg18
g13
sg19
S'/usr/share/fonts/truetype/ttf-indic-fonts-core/Malige-n.ttf'
p417
sg21
g22
sbag7
(g8
g9
NtRp418
(dp419
g12
g13
sg14
S'KacstNaskh'
p420
sg16
I400
sg17
g13
sg18
g13
sg19
S'/usr/share/fonts/truetype/kacst/KacstNaskh.ttf'
p421
sg21
g22
sbag7
(g8
g9
NtRp422
(dp423
g12
g13
sg14
S'Rekha'
p424
sg16
I400
sg17
g13
sg18
g13
sg19
S'/usr/share/fonts/truetype/ttf-indic-fonts-core/Rekha.ttf'
p425
sg21
g22
sbag7
(g8
g9
NtRp426
(dp427
g12
g13
sg14
S'Vemana2000'
p428
sg16
I400
sg17
g13
sg18
g13
sg19
S'/usr/share/fonts/truetype/ttf-indic-fonts-core/Vemana.ttf'
p429
sg21
g22
sbag7
(g8
g9
NtRp430
(dp431
g12
g54
sg14
S'Norasi'
p432
sg16
I700
sg17
g13
sg18
g13
sg19
S'/usr/share/fonts/truetype/tlwg/Norasi-BoldOblique.ttf'
p433
sg21
g22
sbag7
(g8
g9
NtRp434
(dp435
g12
g49
sg14
S'Kinnari'
p436
sg16
I700
sg17
g13
sg18
g13
sg19
S'/usr/share/fonts/truetype/tlwg/Kinnari-BoldItalic.ttf'
p437
sg21
g22
sbag7
(g8
g9
NtRp438
(dp439
g12
g13
sg14
S'Sawasdee'
p440
sg16
I400
sg17
g13
sg18
g13
sg19
S'/usr/share/fonts/truetype/tlwg/Sawasdee.ttf'
p441
sg21
g22
sbag7
(g8
g9
NtRp442
(dp443
g12
g13
sg14
S'KacstOne'
p444
sg16
I400
sg17
g13
sg18
g13
sg19
S'/usr/share/fonts/truetype/kacst-one/KacstOne.ttf'
p445
sg21
g22
sbag7
(g8
g9
NtRp446
(dp447
g12
g13
sg14
S'FreeSans'
p448
sg16
I700
sg17
g13
sg18
g13
sg19
S'/usr/share/fonts/truetype/freefont/FreeSansBold.ttf'
p449
sg21
g22
sbag7
(g8
g9
NtRp450
(dp451
g12
g13
sg14
S'Lohit Bengali'
p452
sg16
I400
sg17
g13
sg18
g13
sg19
S'/usr/share/fonts/truetype/ttf-indic-fonts-core/lohit_bn.ttf'
p453
sg21
g22
sbag7
(g8
g9
NtRp454
(dp455
g12
g49
sg14
S'Ubuntu Mono'
p456
sg16
I400
sg17
g13
sg18
g13
sg19
S'/usr/share/fonts/truetype/ubuntu-font-family/UbuntuMono-RI.ttf'
p457
sg21
g22
sbag7
(g8
g9
NtRp458
(dp459
g12
g13
sg14
S'Liberation Serif'
p460
sg16
I400
sg17
g13
sg18
g13
sg19
S'/usr/share/fonts/truetype/liberation/LiberationSerif-Regular.ttf'
p461
sg21
g22
sbag7
(g8
g9
NtRp462
(dp463
g12
g54
sg14
S'DejaVu Sans Mono'
p464
sg16
I700
sg17
g13
sg18
g13
sg19
S'/usr/share/fonts/truetype/ttf-dejavu/DejaVuSansMono-BoldOblique.ttf'
p465
sg21
g22
sbag7
(g8
g9
NtRp466
(dp467
g12
g13
sg14
S'Purisa'
p468
sg16
I700
sg17
g13
sg18
g13
sg19
S'/usr/share/fonts/truetype/tlwg/Purisa-Bold.ttf'
p469
sg21
g22
sbag7
(g8
g9
NtRp470
(dp471
g12
g13
sg14
S'FreeMono'
p472
sg16
I700
sg17
g13
sg18
g13
sg19
S'/usr/share/fonts/truetype/freefont/FreeMonoBold.ttf'
p473
sg21
g22
sbag7
(g8
g9
NtRp474
(dp475
g12
g13
sg14
S'DejaVu Sans'
p476
sg16
I700
sg17
g13
sg18
g13
sg19
S'/usr/share/fonts/truetype/ttf-dejavu/DejaVuSans-Bold.ttf'
p477
sg21
g22
sbag7
(g8
g9
NtRp478
(dp479
g12
g13
sg14
S'Tlwg Typist'
p480
sg16
I700
sg17
g13
sg18
g13
sg19
S'/usr/share/fonts/truetype/tlwg/TlwgTypist-Bold.ttf'
p481
sg21
g22
sbag7
(g8
g9
NtRp482
(dp483
g12
g13
sg14
S'DejaVu Sans'
p484
sg16
I200
sg17
g13
sg18
g13
sg19
S'/usr/share/fonts/truetype/ttf-dejavu/DejaVuSans-ExtraLight.ttf'
p485
sg21
g22
sbag7
(g8
g9
NtRp486
(dp487
g12
g13
sg14
S'KacstBook'
p488
sg16
I400
sg17
g13
sg18
g13
sg19
S'/usr/share/fonts/truetype/kacst/KacstBook.ttf'
p489
sg21
g22
sbag7
(g8
g9
NtRp490
(dp491
g12
g13
sg14
S'KacstFarsi'
p492
sg16
I400
sg17
g13
sg18
g13
sg19
S'/usr/share/fonts/truetype/kacst/KacstFarsi.ttf'
p493
sg21
g22
sbag7
(g8
g9
NtRp494
(dp495
g12
g13
sg14
S'KacstPoster'
p496
sg16
I400
sg17
g13
sg18
g13
sg19
S'/usr/share/fonts/truetype/kacst/KacstPoster.ttf'
p497
sg21
g22
sbag7
(g8
g9
NtRp498
(dp499
g12
g13
sg14
S'Purisa'
p500
sg16
I400
sg17
g13
sg18
g13
sg19
S'/usr/share/fonts/truetype/tlwg/Purisa.ttf'
p501
sg21
g22
sbag7
(g8
g9
NtRp502
(dp503
g12
g49
sg14
S'Ubuntu'
p504
sg16
I200
sg17
g13
sg18
g13
sg19
S'/usr/share/fonts/truetype/ubuntu-font-family/Ubuntu-LI.ttf'
p505
sg21
g22
sbag7
(g8
g9
NtRp506
(dp507
g12
g49
sg14
S'Ubuntu'
p508
sg16
I700
sg17
g13
sg18
g13
sg19
S'/usr/share/fonts/truetype/ubuntu-font-family/Ubuntu-BI.ttf'
p509
sg21
g22
sbag7
(g8
g9
NtRp510
(dp511
g12
g13
sg14
S'Pothana2000'
p512
sg16
I400
sg17
g13
sg18
g13
sg19
S'/usr/share/fonts/truetype/ttf-indic-fonts-core/Pothana2000.ttf'
p513
sg21
g22
sbag7
(g8
g9
NtRp514
(dp515
g12
g54
sg14
S'Umpush'
p516
sg16
I400
sg17
g13
sg18
g13
sg19
S'/usr/share/fonts/truetype/tlwg/Umpush-Oblique.ttf'
p517
sg21
g22
sbag7
(g8
g9
NtRp518
(dp519
g12
g13
sg14
S'NanumGothic'
p520
sg16
I700
sg17
g13
sg18
g13
sg19
S'/usr/share/fonts/truetype/nanum/NanumGothicBold.ttf'
p521
sg21
g22
sbag7
(g8
g9
NtRp522
(dp523
g12
g49
sg14
S'Liberation Mono'
p524
sg16
I700
sg17
g13
sg18
g13
sg19
S'/usr/share/fonts/truetype/liberation/LiberationMono-BoldItalic.ttf'
p525
sg21
g22
sbag7
(g8
g9
NtRp526
(dp527
g12
g13
sg14
S'Padauk'
p528
sg16
I700
sg17
g13
sg18
g13
sg19
S'/usr/share/fonts/truetype/padauk/Padauk-bold.ttf'
p529
sg21
g22
sbag7
(g8
g9
NtRp530
(dp531
g12
g54
sg14
S'Loma'
p532
sg16
I700
sg17
g13
sg18
g13
sg19
S'/usr/share/fonts/truetype/tlwg/Loma-BoldOblique.ttf'
p533
sg21
g22
sbag7
(g8
g9
NtRp534
(dp535
g12
g13
sg14
S'TlwgTypewriter'
p536
sg16
I400
sg17
g13
sg18
g13
sg19
S'/usr/share/fonts/truetype/tlwg/TlwgTypewriter.ttf'
p537
sg21
g22
sbag7
(g8
g9
NtRp538
(dp539
g12
g49
sg14
S'DejaVu Serif'
p540
sg16
I700
sg17
g196
sg18
g13
sg19
S'/usr/share/fonts/truetype/ttf-dejavu/DejaVuSerifCondensed-BoldItalic.ttf'
p541
sg21
g22
sbag7
(g8
g9
NtRp542
(dp543
g12
g13
sg14
S'Ubuntu Mono'
p544
sg16
I700
sg17
g13
sg18
g13
sg19
S'/usr/share/fonts/truetype/ubuntu-font-family/UbuntuMono-B.ttf'
p545
sg21
g22
sbag7
(g8
g9
NtRp546
(dp547
g12
g13
sg14
S'OpenSymbol'
p548
sg16
I400
sg17
g13
sg18
g13
sg19
S'/usr/share/fonts/truetype/openoffice/opens___.ttf'
p549
sg21
g22
sbag7
(g8
g9
NtRp550
(dp551
g12
g54
sg14
S'TlwgMono'
p552
sg16
I400
sg17
g13
sg18
g13
sg19
S'/usr/share/fonts/truetype/tlwg/TlwgMono-Oblique.ttf'
p553
sg21
g22
sbag7
(g8
g9
NtRp554
(dp555
g12
g13
sg14
S'gargi'
p556
sg16
I400
sg17
g13
sg18
g13
sg19
S'/usr/share/fonts/truetype/ttf-indic-fonts-core/gargi.ttf'
p557
sg21
g22
sbag7
(g8
g9
NtRp558
(dp559
g12
g49
sg14
S'Norasi'
p560
sg16
I400
sg17
g13
sg18
g13
sg19
S'/usr/share/fonts/truetype/tlwg/Norasi-Italic.ttf'
p561
sg21
g22
sbag7
(g8
g9
NtRp562
(dp563
g12
g13
sg14
S'Khmer OS System'
p564
sg16
I400
sg17
g13
sg18
g13
sg19
S'/usr/share/fonts/truetype/ttf-khmeros-core/KhmerOSsys.ttf'
p565
sg21
g22
sbag7
(g8
g9
NtRp566
(dp567
g12
g54
sg14
S'Tlwg Typist'
p568
sg16
I400
sg17
g13
sg18
g13
sg19
S'/usr/share/fonts/truetype/tlwg/TlwgTypist-Oblique.ttf'
p569
sg21
g22
sbag7
(g8
g9
NtRp570
(dp571
g12
g13
sg14
S'Norasi'
p572
sg16
I400
sg17
g13
sg18
g13
sg19
S'/usr/share/fonts/truetype/tlwg/Norasi.ttf'
p573
sg21
g22
sbag7
(g8
g9
NtRp574
(dp575
g12
g49
sg14
S'DejaVu Serif'
p576
sg16
I400
sg17
g196
sg18
g13
sg19
S'/usr/share/fonts/truetype/ttf-dejavu/DejaVuSerifCondensed-Italic.ttf'
p577
sg21
g22
sbag7
(g8
g9
NtRp578
(dp579
g12
g13
sg14
S'Mukti Narrow'
p580
sg16
I700
sg17
g13
sg18
g13
sg19
S'/usr/share/fonts/truetype/ttf-indic-fonts-core/MuktiNarrowBold.ttf'
p581
sg21
g22
sbag7
(g8
g9
NtRp582
(dp583
g12
g49
sg14
S'Liberation Sans'
p584
sg16
I400
sg17
g13
sg18
g13
sg19
S'/usr/share/fonts/truetype/liberation/LiberationSans-Italic.ttf'
p585
sg21
g22
sbag7
(g8
g9
NtRp586
(dp587
g12
g54
sg14
S'Umpush'
p588
sg16
I700
sg17
g13
sg18
g13
sg19
S'/usr/share/fonts/truetype/tlwg/Umpush-BoldOblique.ttf'
p589
sg21
g22
sbag7
(g8
g9
NtRp590
(dp591
g12
g13
sg14
S'Ubuntu'
p592
sg16
I700
sg17
g13
sg18
g13
sg19
S'/usr/share/fonts/truetype/ubuntu-font-family/Ubuntu-B.ttf'
p593
sg21
g22
sbag7
(g8
g9
NtRp594
(dp595
g12
g54
sg14
S'FreeSans'
p596
sg16
I700
sg17
g13
sg18
g13
sg19
S'/usr/share/fonts/truetype/freefont/FreeSansBoldOblique.ttf'
p597
sg21
g22
sbag7
(g8
g9
NtRp598
(dp599
g12
g13
sg14
S'Tlwg Typo'
p600
sg16
I700
sg17
g13
sg18
g13
sg19
S'/usr/share/fonts/truetype/tlwg/TlwgTypo-Bold.ttf'
p601
sg21
g22
sbag7
(g8
g9
NtRp602
(dp603
g12
g49
sg14
S'Ubuntu'
p604
sg16
I400
sg17
g13
sg18
g13
sg19
S'/usr/share/fonts/truetype/ubuntu-font-family/Ubuntu-RI.ttf'
p605
sg21
g22
sbag7
(g8
g9
NtRp606
(dp607
g12
g54
sg14
S'Waree'
p608
sg16
I400
sg17
g13
sg18
g13
sg19
S'/usr/share/fonts/truetype/tlwg/Waree-Oblique.ttf'
p609
sg21
g22
sbag7
(g8
g9
NtRp610
(dp611
g12
g49
sg14
S'Liberation Serif'
p612
sg16
I400
sg17
g13
sg18
g13
sg19
S'/usr/share/fonts/truetype/liberation/LiberationSerif-Italic.ttf'
p613
sg21
g22
sbag7
(g8
g9
NtRp614
(dp615
g12
g13
sg14
S'TlwgTypewriter'
p616
sg16
I700
sg17
g13
sg18
g13
sg19
S'/usr/share/fonts/truetype/tlwg/TlwgTypewriter-Bold.ttf'
p617
sg21
g22
sbag7
(g8
g9
NtRp618
(dp619
g12
g54
sg14
S'Waree'
p620
sg16
I700
sg17
g13
sg18
g13
sg19
S'/usr/share/fonts/truetype/tlwg/Waree-BoldOblique.ttf'
p621
sg21
g22
sbag7
(g8
g9
NtRp622
(dp623
g12
g13
sg14
S'FreeSans'
p624
sg16
I400
sg17
g13
sg18
g13
sg19
S'/usr/share/fonts/truetype/freefont/FreeSans.ttf'
p625
sg21
g22
sbag7
(g8
g9
NtRp626
(dp627
g12
g54
sg14
S'Kinnari'
p628
sg16
I400
sg17
g13
sg18
g13
sg19
S'/usr/share/fonts/truetype/tlwg/Kinnari-Oblique.ttf'
p629
sg21
g22
sbag7
(g8
g9
NtRp630
(dp631
g12
g13
sg14
S'DejaVu Sans Mono'
p632
sg16
I700
sg17
g13
sg18
g13
sg19
S'/usr/share/fonts/truetype/ttf-dejavu/DejaVuSansMono-Bold.ttf'
p633
sg21
g22
sbag7
(g8
g9
NtRp634
(dp635
g12
g49
sg14
S'FreeSerif'
p636
sg16
I700
sg17
g13
sg18
g13
sg19
S'/usr/share/fonts/truetype/freefont/FreeSerifBoldItalic.ttf'
p637
sg21
g22
sbag7
(g8
g9
NtRp638
(dp639
g12
g13
sg14
S'KacstArt'
p640
sg16
I400
sg17
g13
sg18
g13
sg19
S'/usr/share/fonts/truetype/kacst/KacstArt.ttf'
p641
sg21
g22
sbag7
(g8
g9
NtRp642
(dp643
g12
g13
sg14
S'Waree'
p644
sg16
I400
sg17
g13
sg18
g13
sg19
S'/usr/share/fonts/truetype/tlwg/Waree.ttf'
p645
sg21
g22
sbag7
(g8
g9
NtRp646
(dp647
g12
g49
sg14
S'Liberation Sans Narrow'
p648
sg16
I700
sg17
g196
sg18
g13
sg19
S'/usr/share/fonts/truetype/liberation/LiberationSansNarrow-BoldItalic.ttf'
p649
sg21
g22
sbag7
(g8
g9
NtRp650
(dp651
g12
g13
sg14
S'Umpush'
p652
sg16
I200
sg17
g13
sg18
g13
sg19
S'/usr/share/fonts/truetype/tlwg/Umpush-Light.ttf'
p653
sg21
g22
sbag7
(g8
g9
NtRp654
(dp655
g12
g13
sg14
S'Lohit Tamil'
p656
sg16
I400
sg17
g13
sg18
g13
sg19
S'/usr/share/fonts/truetype/ttf-indic-fonts-core/lohit_ta.ttf'
p657
sg21
g22
sbag7
(g8
g9
NtRp658
(dp659
g12
g13
sg14
S'Liberation Sans'
p660
sg16
I400
sg17
g13
sg18
g13
sg19
S'/usr/share/fonts/truetype/liberation/LiberationSans-Regular.ttf'
p661
sg21
g22
sbag7
(g8
g9
NtRp662
(dp663
g12
g13
sg14
S'Ubuntu Condensed'
p664
sg16
I400
sg17
g196
sg18
g13
sg19
S'/usr/share/fonts/truetype/ubuntu-font-family/Ubuntu-C.ttf'
p665
sg21
g22
sbag7
(g8
g9
NtRp666
(dp667
g12
g13
sg14
S'Kinnari'
p668
sg16
I400
sg17
g13
sg18
g13
sg19
S'/usr/share/fonts/truetype/tlwg/Kinnari.ttf'
p669
sg21
g22
sbag7
(g8
g9
NtRp670
(dp671
g12
g49
sg14
S'Ubuntu Mono'
p672
sg16
I700
sg17
g13
sg18
g13
sg19
S'/usr/share/fonts/truetype/ubuntu-font-family/UbuntuMono-BI.ttf'
p673
sg21
g22
sbag7
(g8
g9
NtRp674
(dp675
g12
g13
sg14
S'DejaVu Serif'
p676
sg16
I700
sg17
g196
sg18
g13
sg19
S'/usr/share/fonts/truetype/ttf-dejavu/DejaVuSerifCondensed-Bold.ttf'
p677
sg21
g22
sbag7
(g8
g9
NtRp678
(dp679
g12
g54
sg14
S'TlwgMono'
p680
sg16
I700
sg17
g13
sg18
g13
sg19
S'/usr/share/fonts/truetype/tlwg/TlwgMono-BoldOblique.ttf'
p681
sg21
g22
sbag7
(g8
g9
NtRp682
(dp683
g12
g49
sg14
S'DejaVu Serif'
p684
sg16
I400
sg17
g13
sg18
g13
sg19
S'/usr/share/fonts/truetype/ttf-dejavu/DejaVuSerif-Italic.ttf'
p685
sg21
g22
sbag7
(g8
g9
NtRp686
(dp687
g12
g13
sg14
S'Kedage'
p688
sg16
I400
sg17
g13
sg18
g13
sg19
S'/usr/share/fonts/truetype/ttf-indic-fonts-core/Kedage-n.ttf'
p689
sg21
g22
sbag7
(g8
g9
NtRp690
(dp691
g12
g13
sg14
S'Kinnari'
p692
sg16
I700
sg17
g13
sg18
g13
sg19
S'/usr/share/fonts/truetype/tlwg/Kinnari-Bold.ttf'
p693
sg21
g22
sbag7
(g8
g9
NtRp694
(dp695
g12
g54
sg14
S'FreeMono'
p696
sg16
I400
sg17
g13
sg18
g13
sg19
S'/usr/share/fonts/truetype/freefont/FreeMonoOblique.ttf'
p697
sg21
g22
sbag7
(g8
g9
NtRp698
(dp699
g12
g13
sg14
S'TlwgMono'
p700
sg16
I400
sg17
g13
sg18
g13
sg19
S'/usr/share/fonts/truetype/tlwg/TlwgMono.ttf'
p701
sg21
g22
sbag7
(g8
g9
NtRp702
(dp703
g12
g54
sg14
S'TlwgTypewriter'
p704
sg16
I700
sg17
g13
sg18
g13
sg19
S'/usr/share/fonts/truetype/tlwg/TlwgTypewriter-BoldOblique.ttf'
p705
sg21
g22
sbag7
(g8
g9
NtRp706
(dp707
g12
g54
sg14
S'DejaVu Sans Mono'
p708
sg16
I400
sg17
g13
sg18
g13
sg19
S'/usr/share/fonts/truetype/ttf-dejavu/DejaVuSansMono-Oblique.ttf'
p709
sg21
g22
sbag7
(g8
g9
NtRp710
(dp711
g12
g13
sg14
S'Liberation Sans Narrow'
p712
sg16
I400
sg17
g196
sg18
g13
sg19
S'/usr/share/fonts/truetype/liberation/LiberationSansNarrow-Regular.ttf'
p713
sg21
g22
sbag7
(g8
g9
NtRp714
(dp715
g12
g54
sg14
S'DejaVu Sans'
p716
sg16
I400
sg17
g13
sg18
g13
sg19
S'/usr/share/fonts/truetype/ttf-dejavu/DejaVuSans-Oblique.ttf'
p717
sg21
g22
sbag7
(g8
g9
NtRp718
(dp719
g12
g49
sg14
S'Ubuntu'
p720
sg16
I500
sg17
g13
sg18
g13
sg19
S'/usr/share/fonts/truetype/ubuntu-font-family/Ubuntu-MI.ttf'
p721
sg21
g22
sbag7
(g8
g9
NtRp722
(dp723
g12
g54
sg14
S'Purisa'
p724
sg16
I400
sg17
g13
sg18
g13
sg19
S'/usr/share/fonts/truetype/tlwg/Purisa-Oblique.ttf'
p725
sg21
g22
sbag7
(g8
g9
NtRp726
(dp727
g12
g49
sg14
S'Kinnari'
p728
sg16
I400
sg17
g13
sg18
g13
sg19
S'/usr/share/fonts/truetype/tlwg/Kinnari-Italic.ttf'
p729
sg21
g22
sbag7
(g8
g9
NtRp730
(dp731
g12
g54
sg14
S'Sawasdee'
p732
sg16
I700
sg17
g13
sg18
g13
sg19
S'/usr/share/fonts/truetype/tlwg/Sawasdee-BoldOblique.ttf'
p733
sg21
g22
sbag7
(g8
g9
NtRp734
(dp735
g12
g13
sg14
S'Sawasdee'
p736
sg16
I700
sg17
g13
sg18
g13
sg19
S'/usr/share/fonts/truetype/tlwg/Sawasdee-Bold.ttf'
p737
sg21
g22
sbag7
(g8
g9
NtRp738
(dp739
g12
g13
sg14
S'Padauk Book'
p740
sg16
I400
sg17
g13
sg18
g13
sg19
S'/usr/share/fonts/truetype/padauk/Padauk-book.ttf'
p741
sg21
g22
sbag7
(g8
g9
NtRp742
(dp743
g12
g13
sg14
S'KacstDigital'
p744
sg16
I400
sg17
g13
sg18
g13
sg19
S'/usr/share/fonts/truetype/kacst/KacstDigital.ttf'
p745
sg21
g22
sbag7
(g8
g9
NtRp746
(dp747
g12
g13
sg14
S'DejaVu Serif'
p748
sg16
I400
sg17
g196
sg18
g13
sg19
S'/usr/share/fonts/truetype/ttf-dejavu/DejaVuSerifCondensed.ttf'
p749
sg21
g22
sbag7
(g8
g9
NtRp750
(dp751
g12
g13
sg14
S'Saab'
p752
sg16
I400
sg17
g13
sg18
g13
sg19
S'/usr/share/fonts/truetype/ttf-punjabi-fonts/Saab.ttf'
p753
sg21
g22
sbag7
(g8
g9
NtRp754
(dp755
g12
g13
sg14
S'KacstOffice'
p756
sg16
I400
sg17
g13
sg18
g13
sg19
S'/usr/share/fonts/truetype/kacst/KacstOffice.ttf'
p757
sg21
g22
sbag7
(g8
g9
NtRp758
(dp759
g12
g13
sg14
S'Abyssinica SIL'
p760
sg16
I400
sg17
g13
sg18
g13
sg19
S'/usr/share/fonts/truetype/abyssinica/AbyssinicaSIL-R.ttf'
p761
sg21
g22
sbag7
(g8
g9
NtRp762
(dp763
g12
g13
sg14
S'Lohit Gujarati'
p764
sg16
I400
sg17
g13
sg18
g13
sg19
S'/usr/share/fonts/truetype/ttf-indic-fonts-core/lohit_gu.ttf'
p765
sg21
g22
sbag7
(g8
g9
NtRp766
(dp767
g12
g54
sg14
S'Sawasdee'
p768
sg16
I400
sg17
g13
sg18
g13
sg19
S'/usr/share/fonts/truetype/tlwg/Sawasdee-Oblique.ttf'
p769
sg21
g22
sbag7
(g8
g9
NtRp770
(dp771
g12
g13
sg14
S'NanumMyeongjo'
p772
sg16
I400
sg17
g13
sg18
g13
sg19
S'/usr/share/fonts/truetype/nanum/NanumMyeongjo.ttf'
p773
sg21
g22
sbag7
(g8
g9
NtRp774
(dp775
g12
g13
sg14
S'Khmer OS'
p776
sg16
I400
sg17
g13
sg18
g13
sg19
S'/usr/share/fonts/truetype/ttf-khmeros-core/KhmerOS.ttf'
p777
sg21
g22
sbag7
(g8
g9
NtRp778
(dp779
g12
g13
sg14
S'Padauk'
p780
sg16
I400
sg17
g13
sg18
g13
sg19
S'/usr/share/fonts/truetype/padauk/Padauk.ttf'
p781
sg21
g22
sbag7
(g8
g9
NtRp782
(dp783
g12
g13
sg14
S'Loma'
p784
sg16
I400
sg17
g13
sg18
g13
sg19
S'/usr/share/fonts/truetype/tlwg/Loma.ttf'
p785
sg21
g22
sbag7
(g8
g9
NtRp786
(dp787
g12
g54
sg14
S'Garuda'
p788
sg16
I400
sg17
g13
sg18
g13
sg19
S'/usr/share/fonts/truetype/tlwg/Garuda-Oblique.ttf'
p789
sg21
g22
sbag7
(g8
g9
NtRp790
(dp791
g12
g13
sg14
S'Loma'
p792
sg16
I700
sg17
g13
sg18
g13
sg19
S'/usr/share/fonts/truetype/tlwg/Loma-Bold.ttf'
p793
sg21
g22
sbag7
(g8
g9
NtRp794
(dp795
g12
g54
sg14
S'Garuda'
p796
sg16
I700
sg17
g13
sg18
g13
sg19
S'/usr/share/fonts/truetype/tlwg/Garuda-BoldOblique.ttf'
p797
sg21
g22
sbag7
(g8
g9
NtRp798
(dp799
g12
g13
sg14
S'KacstLetter'
p800
sg16
I400
sg17
g13
sg18
g13
sg19
S'/usr/share/fonts/truetype/kacst/KacstLetter.ttf'
p801
sg21
g22
sbag7
(g8
g9
NtRp802
(dp803
g12
g13
sg14
S'KacstPen'
p804
sg16
I400
sg17
g13
sg18
g13
sg19
S'/usr/share/fonts/truetype/kacst/KacstPen.ttf'
p805
sg21
g22
sbag7
(g8
g9
NtRp806
(dp807
g12
g54
sg14
S'Tlwg Typo'
p808
sg16
I700
sg17
g13
sg18
g13
sg19
S'/usr/share/fonts/truetype/tlwg/TlwgTypo-BoldOblique.ttf'
p809
sg21
g22
sbag7
(g8
g9
NtRp810
(dp811
g12
g13
sg14
S'FreeMono'
p812
sg16
I400
sg17
g13
sg18
g13
sg19
S'/usr/share/fonts/truetype/freefont/FreeMono.ttf'
p813
sg21
g22
sbag7
(g8
g9
NtRp814
(dp815
g12
g49
sg14
S'FreeSerif'
p816
sg16
I400
sg17
g13
sg18
g13
sg19
S'/usr/share/fonts/truetype/freefont/FreeSerifItalic.ttf'
p817
sg21
g22
sbag7
(g8
g9
NtRp818
(dp819
g12
g13
sg14
S'KacstTitleL'
p820
sg16
I400
sg17
g13
sg18
g13
sg19
S'/usr/share/fonts/truetype/kacst/KacstTitleL.ttf'
p821
sg21
g22
sbag7
(g8
g9
NtRp822
(dp823
g12
g13
sg14
S'Ubuntu'
p824
sg16
I200
sg17
g13
sg18
g13
sg19
S'/usr/share/fonts/truetype/ubuntu-font-family/Ubuntu-L.ttf'
p825
sg21
g22
sbag7
(g8
g9
NtRp826
(dp827
g12
g13
sg14
S'KacstDecorative'
p828
sg16
I400
sg17
g13
sg18
g13
sg19
S'/usr/share/fonts/truetype/kacst/KacstDecorative.ttf'
p829
sg21
g22
sbag7
(g8
g9
NtRp830
(dp831
g12
g54
sg14
S'TlwgTypewriter'
p832
sg16
I400
sg17
g13
sg18
g13
sg19
S'/usr/share/fonts/truetype/tlwg/TlwgTypewriter-Oblique.ttf'
p833
sg21
g22
sbag7
(g8
g9
NtRp834
(dp835
g12
g49
sg14
S'Liberation Sans Narrow'
p836
sg16
I400
sg17
g196
sg18
g13
sg19
S'/usr/share/fonts/truetype/liberation/LiberationSansNarrow-Italic.ttf'
p837
sg21
g22
sbasS'defaultFamily'
p838
(dp839
S'afm'
p840
S'Helvetica'
p841
sS'ttf'
p842
S'Bitstream Vera Sans'
p843
ssS'ttffiles'
p844
(lp845
S'/home/wstein/sage/build/sage-5.6/local/lib/python2.7/site-packages/matplotlib/mpl-data/fonts/ttf/cmss10.ttf'
p846
aS'/home/wstein/sage/build/sage-5.6/local/lib/python2.7/site-packages/matplotlib/mpl-data/fonts/ttf/cmb10.ttf'
p847
aS'/home/wstein/sage/build/sage-5.6/local/lib/python2.7/site-packages/matplotlib/mpl-data/fonts/ttf/cmtt10.ttf'
p848
aS'/home/wstein/sage/build/sage-5.6/local/lib/python2.7/site-packages/matplotlib/mpl-data/fonts/ttf/STIXSizTwoSymBol.ttf'
p849
aS'/home/wstein/sage/build/sage-5.6/local/lib/python2.7/site-packages/matplotlib/mpl-data/fonts/ttf/VeraMoBd.ttf'
p850
aS'/home/wstein/sage/build/sage-5.6/local/lib/python2.7/site-packages/matplotlib/mpl-data/fonts/ttf/cmr10.ttf'
p851
aS'/home/wstein/sage/build/sage-5.6/local/lib/python2.7/site-packages/matplotlib/mpl-data/fonts/ttf/STIXSizFourSymBol.ttf'
p852
aS'/home/wstein/sage/build/sage-5.6/local/lib/python2.7/site-packages/matplotlib/mpl-data/fonts/ttf/STIXGeneralBolIta.ttf'
p853
aS'/home/wstein/sage/build/sage-5.6/local/lib/python2.7/site-packages/matplotlib/mpl-data/fonts/ttf/VeraBI.ttf'
p854
aS'/home/wstein/sage/build/sage-5.6/local/lib/python2.7/site-packages/matplotlib/mpl-data/fonts/ttf/STIXNonUniBol.ttf'
p855
aS'/home/wstein/sage/build/sage-5.6/local/lib/python2.7/site-packages/matplotlib/mpl-data/fonts/ttf/STIXSizFourSymReg.ttf'
p856
aS'/home/wstein/sage/build/sage-5.6/local/lib/python2.7/site-packages/matplotlib/mpl-data/fonts/ttf/STIXSizThreeSymBol.ttf'
p857
aS'/home/wstein/sage/build/sage-5.6/local/lib/python2.7/site-packages/matplotlib/mpl-data/fonts/ttf/STIXNonUniIta.ttf'
p858
aS'/home/wstein/sage/build/sage-5.6/local/lib/python2.7/site-packages/matplotlib/mpl-data/fonts/ttf/VeraMoIt.ttf'
p859
aS'/home/wstein/sage/build/sage-5.6/local/lib/python2.7/site-packages/matplotlib/mpl-data/fonts/ttf/STIXSizFiveSymReg.ttf'
p860
aS'/home/wstein/sage/build/sage-5.6/local/lib/python2.7/site-packages/matplotlib/mpl-data/fonts/ttf/VeraMono.ttf'
p861
aS'/home/wstein/sage/build/sage-5.6/local/lib/python2.7/site-packages/matplotlib/mpl-data/fonts/ttf/VeraMoBI.ttf'
p862
aS'/home/wstein/sage/build/sage-5.6/local/lib/python2.7/site-packages/matplotlib/mpl-data/fonts/ttf/STIXSizOneSymBol.ttf'
p863
aS'/home/wstein/sage/build/sage-5.6/local/lib/python2.7/site-packages/matplotlib/mpl-data/fonts/ttf/VeraBd.ttf'
p864
aS'/home/wstein/sage/build/sage-5.6/local/lib/python2.7/site-packages/matplotlib/mpl-data/fonts/ttf/VeraSeBd.ttf'
p865
aS'/home/wstein/sage/build/sage-5.6/local/lib/python2.7/site-packages/matplotlib/mpl-data/fonts/ttf/STIXSizTwoSymReg.ttf'
p866
aS'/home/wstein/sage/build/sage-5.6/local/lib/python2.7/site-packages/matplotlib/mpl-data/fonts/ttf/cmex10.ttf'
p867
aS'/home/wstein/sage/build/sage-5.6/local/lib/python2.7/site-packages/matplotlib/mpl-data/fonts/ttf/cmmi10.ttf'
p868
aS'/home/wstein/sage/build/sage-5.6/local/lib/python2.7/site-packages/matplotlib/mpl-data/fonts/ttf/Vera.ttf'
p869
aS'/home/wstein/sage/build/sage-5.6/local/lib/python2.7/site-packages/matplotlib/mpl-data/fonts/ttf/VeraIt.ttf'
p870
aS'/home/wstein/sage/build/sage-5.6/local/lib/python2.7/site-packages/matplotlib/mpl-data/fonts/ttf/VeraSe.ttf'
p871
aS'/home/wstein/sage/build/sage-5.6/local/lib/python2.7/site-packages/matplotlib/mpl-data/fonts/ttf/STIXSizOneSymReg.ttf'
p872
aS'/home/wstein/sage/build/sage-5.6/local/lib/python2.7/site-packages/matplotlib/mpl-data/fonts/ttf/STIXGeneralBol.ttf'
p873
aS'/home/wstein/sage/build/sage-5.6/local/lib/python2.7/site-packages/matplotlib/mpl-data/fonts/ttf/STIXGeneral.ttf'
p874
aS'/home/wstein/sage/build/sage-5.6/local/lib/python2.7/site-packages/matplotlib/mpl-data/fonts/ttf/STIXSizThreeSymReg.ttf'
p875
aS'/home/wstein/sage/build/sage-5.6/local/lib/python2.7/site-packages/matplotlib/mpl-data/fonts/ttf/STIXNonUni.ttf'
p876
aS'/home/wstein/sage/build/sage-5.6/local/lib/python2.7/site-packages/matplotlib/mpl-data/fonts/ttf/STIXNonUniBolIta.ttf'
p877
aS'/home/wstein/sage/build/sage-5.6/local/lib/python2.7/site-packages/matplotlib/mpl-data/fonts/ttf/cmsy10.ttf'
p878
aS'/home/wstein/sage/build/sage-5.6/local/lib/python2.7/site-packages/matplotlib/mpl-data/fonts/ttf/STIXGeneralItalic.ttf'
p879
aS'/usr/share/fonts/truetype/kacst/KacstTitle.ttf'
p880
aS'/usr/share/fonts/truetype/tlwg/TlwgTypo-Oblique.ttf'
p881
aS'/usr/share/fonts/truetype/ttf-indic-fonts-core/Malige-b.ttf'
p882
aS'/usr/share/fonts/truetype/ubuntu-font-family/Ubuntu-M.ttf'
p883
aS'/usr/share/fonts/truetype/tlwg/Umpush.ttf'
p884
aS'/usr/share/fonts/truetype/tlwg/Garuda-Bold.ttf'
p885
aS'/usr/share/fonts/truetype/tlwg/TlwgTypist-BoldOblique.ttf'
p886
aS'/usr/share/fonts/truetype/freefont/FreeSerif.ttf'
p887
aS'/usr/share/fonts/truetype/kacst/KacstScreen.ttf'
p888
aS'/usr/share/fonts/truetype/ttf-dejavu/DejaVuSansCondensed.ttf'
p889
aS'/usr/share/fonts/truetype/tlwg/Loma-Oblique.ttf'
p890
aS'/usr/share/fonts/truetype/tlwg/Norasi-Oblique.ttf'
p891
aS'/usr/share/fonts/truetype/ttf-dejavu/DejaVuSansMono.ttf'
p892
aS'/usr/share/fonts/truetype/ttf-punjabi-fonts/lohit_pa.ttf'
p893
aS'/usr/share/fonts/truetype/ttf-indic-fonts-core/Meera_04.ttf'
p894
aS'/usr/share/fonts/truetype/fonts-japanese-gothic.ttf'
p895
aS'/usr/share/fonts/truetype/liberation/LiberationMono-Bold.ttf'
p896
aS'/usr/share/fonts/truetype/tlwg/Umpush-LightOblique.ttf'
p897
aS'/usr/share/fonts/truetype/freefont/FreeSerifBold.ttf'
p898
aS'/usr/share/fonts/truetype/freefont/FreeMonoBoldOblique.ttf'
p899
aS'/usr/share/fonts/truetype/tlwg/TlwgTypo.ttf'
p900
aS'/usr/share/fonts/truetype/padauk/Padauk-bookbold.ttf'
p901
aS'/usr/share/fonts/truetype/sinhala/lklug.ttf'
p902
aS'/usr/share/fonts/truetype/ttf-indic-fonts-core/Rachana_04.ttf'
p903
aS'/usr/share/fonts/truetype/ttf-dejavu/DejaVuSerif.ttf'
p904
aS'/usr/share/fonts/truetype/liberation/LiberationSansNarrow-Bold.ttf'
p905
aS'/usr/share/fonts/truetype/freefont/FreeSansOblique.ttf'
p906
aS'/usr/share/fonts/truetype/liberation/LiberationSans-Bold.ttf'
p907
aS'/usr/share/fonts/truetype/ttf-indic-fonts-core/lohit_hi.ttf'
p908
aS'/usr/share/fonts/truetype/liberation/LiberationMono-Regular.ttf'
p909
aS'/usr/share/fonts/truetype/ttf-marvosym/marvosym.ttf'
p910
aS'/usr/share/fonts/truetype/ubuntu-font-family/Ubuntu-R.ttf'
p911
aS'/usr/share/fonts/truetype/tlwg/Garuda.ttf'
p912
aS'/usr/share/fonts/truetype/ttf-dejavu/DejaVuSans-BoldOblique.ttf'
p913
aS'/usr/share/fonts/truetype/tlwg/TlwgTypist.ttf'
p914
aS'/usr/share/fonts/truetype/nanum/NanumGothic.ttf'
p915
aS'/usr/share/fonts/truetype/kacst/mry_KacstQurn.ttf'
p916
aS'/usr/share/fonts/truetype/ttf-dejavu/DejaVuSansCondensed-Bold.ttf'
p917
aS'/usr/share/fonts/truetype/tlwg/TlwgMono-Bold.ttf'
p918
aS'/usr/share/fonts/truetype/liberation/LiberationMono-Italic.ttf'
p919
aS'/usr/share/fonts/truetype/tibetan-machine/TibetanMachineUni.ttf'
p920
aS'/usr/share/fonts/truetype/liberation/LiberationSerif-BoldItalic.ttf'
p921
aS'/usr/share/fonts/truetype/ttf-dejavu/DejaVuSans.ttf'
p922
aS'/usr/share/fonts/truetype/liberation/LiberationSerif-Bold.ttf'
p923
aS'/usr/share/fonts/truetype/kacst-one/KacstOne-Bold.ttf'
p924
aS'/usr/share/fonts/truetype/nanum/NanumMyeongjoBold.ttf'
p925
aS'/usr/share/fonts/truetype/tlwg/Waree-Bold.ttf'
p926
aS'/usr/share/fonts/truetype/lao/Phetsarath_OT.ttf'
p927
aS'/usr/share/fonts/truetype/ttf-dejavu/DejaVuSansCondensed-Oblique.ttf'
p928
aS'/usr/share/fonts/truetype/ttf-indic-fonts-core/utkal.ttf'
p929
aS'/usr/share/fonts/truetype/kacst/KacstQurn.ttf'
p930
aS'/usr/share/fonts/truetype/ttf-indic-fonts-core/MuktiNarrow.ttf'
p931
aS'/usr/share/fonts/truetype/takao-gothic/TakaoPGothic.ttf'
p932
aS'/usr/share/fonts/truetype/ttf-dejavu/DejaVuSerif-BoldItalic.ttf'
p933
aS'/usr/share/fonts/truetype/ttf-dejavu/DejaVuSansCondensed-BoldOblique.ttf'
p934
aS'/usr/share/fonts/truetype/ttf-indic-fonts-core/Kedage-b.ttf'
p935
aS'/usr/share/fonts/truetype/ttf-dejavu/DejaVuSerif-Bold.ttf'
p936
aS'/usr/share/fonts/truetype/ubuntu-font-family/UbuntuMono-R.ttf'
p937
aS'/usr/share/fonts/truetype/tlwg/Purisa-BoldOblique.ttf'
p938
aS'/usr/share/fonts/truetype/tlwg/Norasi-Bold.ttf'
p939
aS'/usr/share/fonts/truetype/tlwg/Norasi-BoldItalic.ttf'
p940
aS'/usr/share/fonts/truetype/tlwg/Umpush-Bold.ttf'
p941
aS'/usr/share/fonts/truetype/tlwg/Kinnari-BoldOblique.ttf'
p942
aS'/usr/share/fonts/truetype/liberation/LiberationSans-BoldItalic.ttf'
p943
aS'/usr/share/fonts/truetype/ttf-indic-fonts-core/Malige-n.ttf'
p944
aS'/usr/share/fonts/truetype/kacst/KacstNaskh.ttf'
p945
aS'/usr/share/fonts/truetype/ttf-indic-fonts-core/Rekha.ttf'
p946
aS'/usr/share/fonts/truetype/ttf-indic-fonts-core/Vemana.ttf'
p947
aS'/usr/share/fonts/truetype/tlwg/Norasi-BoldOblique.ttf'
p948
aS'/usr/share/fonts/truetype/tlwg/Kinnari-BoldItalic.ttf'
p949
aS'/usr/share/fonts/truetype/tlwg/Sawasdee.ttf'
p950
aS'/usr/share/fonts/truetype/kacst-one/KacstOne.ttf'
p951
aS'/usr/share/fonts/truetype/freefont/FreeSansBold.ttf'
p952
aS'/usr/share/fonts/truetype/ttf-indic-fonts-core/lohit_bn.ttf'
p953
aS'/usr/share/fonts/truetype/ubuntu-font-family/UbuntuMono-RI.ttf'
p954
aS'/usr/share/fonts/truetype/liberation/LiberationSerif-Regular.ttf'
p955
aS'/usr/share/fonts/truetype/ttf-dejavu/DejaVuSansMono-BoldOblique.ttf'
p956
aS'/usr/share/fonts/truetype/tlwg/Purisa-Bold.ttf'
p957
aS'/usr/share/fonts/truetype/freefont/FreeMonoBold.ttf'
p958
aS'/usr/share/fonts/truetype/ttf-dejavu/DejaVuSans-Bold.ttf'
p959
aS'/usr/share/fonts/truetype/tlwg/TlwgTypist-Bold.ttf'
p960
aS'/usr/share/fonts/truetype/ttf-dejavu/DejaVuSans-ExtraLight.ttf'
p961
aS'/usr/share/fonts/truetype/kacst/KacstBook.ttf'
p962
aS'/usr/share/fonts/truetype/kacst/KacstFarsi.ttf'
p963
aS'/usr/share/fonts/truetype/kacst/KacstPoster.ttf'
p964
aS'/usr/share/fonts/truetype/tlwg/Purisa.ttf'
p965
aS'/usr/share/fonts/truetype/ubuntu-font-family/Ubuntu-LI.ttf'
p966
aS'/usr/share/fonts/truetype/ubuntu-font-family/Ubuntu-BI.ttf'
p967
aS'/usr/share/fonts/truetype/ttf-indic-fonts-core/Pothana2000.ttf'
p968
aS'/usr/share/fonts/truetype/tlwg/Umpush-Oblique.ttf'
p969
aS'/usr/share/fonts/truetype/nanum/NanumGothicBold.ttf'
p970
aS'/usr/share/fonts/truetype/liberation/LiberationMono-BoldItalic.ttf'
p971
aS'/usr/share/fonts/truetype/padauk/Padauk-bold.ttf'
p972
aS'/usr/share/fonts/truetype/tlwg/Loma-BoldOblique.ttf'
p973
aS'/usr/share/fonts/truetype/tlwg/TlwgTypewriter.ttf'
p974
aS'/usr/share/fonts/truetype/ttf-dejavu/DejaVuSerifCondensed-BoldItalic.ttf'
p975
aS'/usr/share/fonts/truetype/ubuntu-font-family/UbuntuMono-B.ttf'
p976
aS'/usr/share/fonts/truetype/openoffice/opens___.ttf'
p977
aS'/usr/share/fonts/truetype/tlwg/TlwgMono-Oblique.ttf'
p978
aS'/usr/share/fonts/truetype/ttf-indic-fonts-core/gargi.ttf'
p979
aS'/usr/share/fonts/truetype/tlwg/Norasi-Italic.ttf'
p980
aS'/usr/share/fonts/truetype/ttf-khmeros-core/KhmerOSsys.ttf'
p981
aS'/usr/share/fonts/truetype/tlwg/TlwgTypist-Oblique.ttf'
p982
aS'/usr/share/fonts/truetype/tlwg/Norasi.ttf'
p983
aS'/usr/share/fonts/truetype/ttf-dejavu/DejaVuSerifCondensed-Italic.ttf'
p984
aS'/usr/share/fonts/truetype/ttf-indic-fonts-core/MuktiNarrowBold.ttf'
p985
aS'/usr/share/fonts/truetype/liberation/LiberationSans-Italic.ttf'
p986
aS'/usr/share/fonts/truetype/tlwg/Umpush-BoldOblique.ttf'
p987
aS'/usr/share/fonts/truetype/ubuntu-font-family/Ubuntu-B.ttf'
p988
aS'/usr/share/fonts/truetype/freefont/FreeSansBoldOblique.ttf'
p989
aS'/usr/share/fonts/truetype/tlwg/TlwgTypo-Bold.ttf'
p990
aS'/usr/share/fonts/truetype/ubuntu-font-family/Ubuntu-RI.ttf'
p991
aS'/usr/share/fonts/truetype/tlwg/Waree-Oblique.ttf'
p992
aS'/usr/share/fonts/truetype/liberation/LiberationSerif-Italic.ttf'
p993
aS'/usr/share/fonts/truetype/tlwg/TlwgTypewriter-Bold.ttf'
p994
aS'/usr/share/fonts/truetype/tlwg/Waree-BoldOblique.ttf'
p995
aS'/usr/share/fonts/truetype/freefont/FreeSans.ttf'
p996
aS'/usr/share/fonts/truetype/tlwg/Kinnari-Oblique.ttf'
p997
aS'/usr/share/fonts/truetype/ttf-dejavu/DejaVuSansMono-Bold.ttf'
p998
aS'/usr/share/fonts/truetype/freefont/FreeSerifBoldItalic.ttf'
p999
aS'/usr/share/fonts/truetype/kacst/KacstArt.ttf'
p1000
aS'/usr/share/fonts/truetype/tlwg/Waree.ttf'
p1001
aS'/usr/share/fonts/truetype/liberation/LiberationSansNarrow-BoldItalic.ttf'
p1002
aS'/usr/share/fonts/truetype/tlwg/Umpush-Light.ttf'
p1003
aS'/usr/share/fonts/truetype/ttf-indic-fonts-core/lohit_ta.ttf'
p1004
aS'/usr/share/fonts/truetype/liberation/LiberationSans-Regular.ttf'
p1005
aS'/usr/share/fonts/truetype/ubuntu-font-family/Ubuntu-C.ttf'
p1006
aS'/usr/share/fonts/truetype/tlwg/Kinnari.ttf'
p1007
aS'/usr/share/fonts/truetype/ubuntu-font-family/UbuntuMono-BI.ttf'
p1008
aS'/usr/share/fonts/truetype/ttf-dejavu/DejaVuSerifCondensed-Bold.ttf'
p1009
aS'/usr/share/fonts/truetype/tlwg/TlwgMono-BoldOblique.ttf'
p1010
aS'/usr/share/fonts/truetype/ttf-dejavu/DejaVuSerif-Italic.ttf'
p1011
aS'/usr/share/fonts/truetype/ttf-indic-fonts-core/Kedage-n.ttf'
p1012
aS'/usr/share/fonts/truetype/tlwg/Kinnari-Bold.ttf'
p1013
aS'/usr/share/fonts/truetype/freefont/FreeMonoOblique.ttf'
p1014
aS'/usr/share/fonts/truetype/tlwg/TlwgMono.ttf'
p1015
aS'/usr/share/fonts/truetype/tlwg/TlwgTypewriter-BoldOblique.ttf'
p1016
aS'/usr/share/fonts/truetype/ttf-dejavu/DejaVuSansMono-Oblique.ttf'
p1017
aS'/usr/share/fonts/truetype/liberation/LiberationSansNarrow-Regular.ttf'
p1018
aS'/usr/share/fonts/truetype/ttf-dejavu/DejaVuSans-Oblique.ttf'
p1019
aS'/usr/share/fonts/truetype/ubuntu-font-family/Ubuntu-MI.ttf'
p1020
aS'/usr/share/fonts/truetype/tlwg/Purisa-Oblique.ttf'
p1021
aS'/usr/share/fonts/truetype/tlwg/Kinnari-Italic.ttf'
p1022
aS'/usr/share/fonts/truetype/tlwg/Sawasdee-BoldOblique.ttf'
p1023
aS'/usr/share/fonts/truetype/tlwg/Sawasdee-Bold.ttf'
p1024
aS'/usr/share/fonts/truetype/padauk/Padauk-book.ttf'
p1025
aS'/usr/share/fonts/truetype/kacst/KacstDigital.ttf'
p1026
aS'/usr/share/fonts/truetype/ttf-dejavu/DejaVuSerifCondensed.ttf'
p1027
aS'/usr/share/fonts/truetype/ttf-punjabi-fonts/Saab.ttf'
p1028
aS'/usr/share/fonts/truetype/kacst/KacstOffice.ttf'
p1029
aS'/usr/share/fonts/truetype/abyssinica/AbyssinicaSIL-R.ttf'
p1030
aS'/usr/share/fonts/truetype/ttf-indic-fonts-core/lohit_gu.ttf'
p1031
aS'/usr/share/fonts/truetype/tlwg/Sawasdee-Oblique.ttf'
p1032
aS'/usr/share/fonts/truetype/nanum/NanumMyeongjo.ttf'
p1033
aS'/usr/share/fonts/truetype/ttf-khmeros-core/KhmerOS.ttf'
p1034
aS'/usr/share/fonts/truetype/padauk/Padauk.ttf'
p1035
aS'/usr/share/fonts/truetype/tlwg/Loma.ttf'
p1036
aS'/usr/share/fonts/truetype/tlwg/Garuda-Oblique.ttf'
p1037
aS'/usr/share/fonts/truetype/tlwg/Loma-Bold.ttf'
p1038
aS'/usr/share/fonts/truetype/tlwg/Garuda-BoldOblique.ttf'
p1039
aS'/usr/share/fonts/truetype/kacst/KacstLetter.ttf'
p1040
aS'/usr/share/fonts/truetype/kacst/KacstPen.ttf'
p1041
aS'/usr/share/fonts/truetype/tlwg/TlwgTypo-BoldOblique.ttf'
p1042
aS'/usr/share/fonts/truetype/freefont/FreeMono.ttf'
p1043
aS'/usr/share/fonts/truetype/freefont/FreeSerifItalic.ttf'
p1044
aS'/usr/share/fonts/truetype/kacst/KacstTitleL.ttf'
p1045
aS'/usr/share/fonts/truetype/ubuntu-font-family/Ubuntu-L.ttf'
p1046
aS'/usr/share/fonts/truetype/kacst/KacstDecorative.ttf'
p1047
aS'/usr/share/fonts/truetype/tlwg/TlwgTypewriter-Oblique.ttf'
p1048
aS'/usr/share/fonts/truetype/liberation/LiberationSansNarrow-Italic.ttf'
p1049
asS'_FontManager__default_weight'
p1050
g13
sS'_version'
p1051
I7
sS'ttf_lookup_cache'
p1052
(dp1053
sS'default_size'
p1054
NsS'defaultFont'
p1055
(dp1056
g840
Nsg842
g869
ssS'afmfiles'
p1057
(lp1058
S'/home/wstein/sage/build/sage-5.6/local/lib/python2.7/site-packages/matplotlib/mpl-data/fonts/afm/ptmbi8a.afm'
p1059
aS'/home/wstein/sage/build/sage-5.6/local/lib/python2.7/site-packages/matplotlib/mpl-data/fonts/afm/putri8a.afm'
p1060
aS'/home/wstein/sage/build/sage-5.6/local/lib/python2.7/site-packages/matplotlib/mpl-data/fonts/pdfcorefonts/Times-Italic.afm'
p1061
aS'/home/wstein/sage/build/sage-5.6/local/lib/python2.7/site-packages/matplotlib/mpl-data/fonts/afm/pcrb8a.afm'
p1062
aS'/home/wstein/sage/build/sage-5.6/local/lib/python2.7/site-packages/matplotlib/mpl-data/fonts/afm/phvr8an.afm'
p1063
aS'/home/wstein/sage/build/sage-5.6/local/lib/python2.7/site-packages/matplotlib/mpl-data/fonts/afm/putr8a.afm'
p1064
aS'/home/wstein/sage/build/sage-5.6/local/lib/python2.7/site-packages/matplotlib/mpl-data/fonts/pdfcorefonts/Symbol.afm'
p1065
aS'/home/wstein/sage/build/sage-5.6/local/lib/python2.7/site-packages/matplotlib/mpl-data/fonts/pdfcorefonts/Courier.afm'
p1066
aS'/home/wstein/sage/build/sage-5.6/local/lib/python2.7/site-packages/matplotlib/mpl-data/fonts/afm/pcrbo8a.afm'
p1067
aS'/home/wstein/sage/build/sage-5.6/local/lib/python2.7/site-packages/matplotlib/mpl-data/fonts/afm/phvb8an.afm'
p1068
aS'/home/wstein/sage/build/sage-5.6/local/lib/python2.7/site-packages/matplotlib/mpl-data/fonts/afm/pagk8a.afm'
p1069
aS'/home/wstein/sage/build/sage-5.6/local/lib/python2.7/site-packages/matplotlib/mpl-data/fonts/afm/pcrr8a.afm'
p1070
aS'/home/wstein/sage/build/sage-5.6/local/lib/python2.7/site-packages/matplotlib/mpl-data/fonts/afm/phvro8a.afm'
p1071
aS'/home/wstein/sage/build/sage-5.6/local/lib/python2.7/site-packages/matplotlib/mpl-data/fonts/afm/psyr.afm'
p1072
aS'/home/wstein/sage/build/sage-5.6/local/lib/python2.7/site-packages/matplotlib/mpl-data/fonts/afm/pplbi8a.afm'
p1073
aS'/home/wstein/sage/build/sage-5.6/local/lib/python2.7/site-packages/matplotlib/mpl-data/fonts/afm/pbkd8a.afm'
p1074
aS'/home/wstein/sage/build/sage-5.6/local/lib/python2.7/site-packages/matplotlib/mpl-data/fonts/afm/pplr8a.afm'
p1075
aS'/home/wstein/sage/build/sage-5.6/local/lib/python2.7/site-packages/matplotlib/mpl-data/fonts/afm/pbkli8a.afm'
p1076
aS'/home/wstein/sage/build/sage-5.6/local/lib/python2.7/site-packages/matplotlib/mpl-data/fonts/afm/pzcmi8a.afm'
p1077
aS'/home/wstein/sage/build/sage-5.6/local/lib/python2.7/site-packages/matplotlib/mpl-data/fonts/afm/phvbo8a.afm'
p1078
aS'/home/wstein/sage/build/sage-5.6/local/lib/python2.7/site-packages/matplotlib/mpl-data/fonts/pdfcorefonts/ZapfDingbats.afm'
p1079
aS'/home/wstein/sage/build/sage-5.6/local/lib/python2.7/site-packages/matplotlib/mpl-data/fonts/afm/cmmi10.afm'
p1080
aS'/home/wstein/sage/build/sage-5.6/local/lib/python2.7/site-packages/matplotlib/mpl-data/fonts/pdfcorefonts/Times-Bold.afm'
p1081
aS'/home/wstein/sage/build/sage-5.6/local/lib/python2.7/site-packages/matplotlib/mpl-data/fonts/afm/ptmri8a.afm'
p1082
aS'/home/wstein/sage/build/sage-5.6/local/lib/python2.7/site-packages/matplotlib/mpl-data/fonts/afm/pncbi8a.afm'
p1083
aS'/home/wstein/sage/build/sage-5.6/local/lib/python2.7/site-packages/matplotlib/mpl-data/fonts/afm/putbi8a.afm'
p1084
aS'/home/wstein/sage/build/sage-5.6/local/lib/python2.7/site-packages/matplotlib/mpl-data/fonts/afm/pagd8a.afm'
p1085
aS'/home/wstein/sage/build/sage-5.6/local/lib/python2.7/site-packages/matplotlib/mpl-data/fonts/pdfcorefonts/Courier-BoldOblique.afm'
p1086
aS'/home/wstein/sage/build/sage-5.6/local/lib/python2.7/site-packages/matplotlib/mpl-data/fonts/afm/phvbo8an.afm'
p1087
aS'/home/wstein/sage/build/sage-5.6/local/lib/python2.7/site-packages/matplotlib/mpl-data/fonts/pdfcorefonts/Helvetica-Bold.afm'
p1088
aS'/home/wstein/sage/build/sage-5.6/local/lib/python2.7/site-packages/matplotlib/mpl-data/fonts/afm/phvro8an.afm'
p1089
aS'/home/wstein/sage/build/sage-5.6/local/lib/python2.7/site-packages/matplotlib/mpl-data/fonts/afm/pcrro8a.afm'
p1090
aS'/home/wstein/sage/build/sage-5.6/local/lib/python2.7/site-packages/matplotlib/mpl-data/fonts/afm/phvr8a.afm'
p1091
aS'/home/wstein/sage/build/sage-5.6/local/lib/python2.7/site-packages/matplotlib/mpl-data/fonts/afm/phvlo8a.afm'
p1092
aS'/home/wstein/sage/build/sage-5.6/local/lib/python2.7/site-packages/matplotlib/mpl-data/fonts/pdfcorefonts/Helvetica.afm'
p1093
aS'/home/wstein/sage/build/sage-5.6/local/lib/python2.7/site-packages/matplotlib/mpl-data/fonts/afm/cmsy10.afm'
p1094
aS'/home/wstein/sage/build/sage-5.6/local/lib/python2.7/site-packages/matplotlib/mpl-data/fonts/pdfcorefonts/Helvetica-Oblique.afm'
p1095
aS'/home/wstein/sage/build/sage-5.6/local/lib/python2.7/site-packages/matplotlib/mpl-data/fonts/pdfcorefonts/Courier-Bold.afm'
p1096
aS'/home/wstein/sage/build/sage-5.6/local/lib/python2.7/site-packages/matplotlib/mpl-data/fonts/afm/pplri8a.afm'
p1097
aS'/home/wstein/sage/build/sage-5.6/local/lib/python2.7/site-packages/matplotlib/mpl-data/fonts/afm/pncb8a.afm'
p1098
aS'/home/wstein/sage/build/sage-5.6/local/lib/python2.7/site-packages/matplotlib/mpl-data/fonts/pdfcorefonts/Courier-Oblique.afm'
p1099
aS'/home/wstein/sage/build/sage-5.6/local/lib/python2.7/site-packages/matplotlib/mpl-data/fonts/afm/pplb8a.afm'
p1100
aS'/home/wstein/sage/build/sage-5.6/local/lib/python2.7/site-packages/matplotlib/mpl-data/fonts/afm/pagko8a.afm'
p1101
aS'/home/wstein/sage/build/sage-5.6/local/lib/python2.7/site-packages/matplotlib/mpl-data/fonts/afm/pagdo8a.afm'
p1102
aS'/home/wstein/sage/build/sage-5.6/local/lib/python2.7/site-packages/matplotlib/mpl-data/fonts/afm/putb8a.afm'
p1103
aS'/home/wstein/sage/build/sage-5.6/local/lib/python2.7/site-packages/matplotlib/mpl-data/fonts/afm/ptmb8a.afm'
p1104
aS'/home/wstein/sage/build/sage-5.6/local/lib/python2.7/site-packages/matplotlib/mpl-data/fonts/afm/phvb8a.afm'
p1105
aS'/home/wstein/sage/build/sage-5.6/local/lib/python2.7/site-packages/matplotlib/mpl-data/fonts/afm/pbkl8a.afm'
p1106
aS'/home/wstein/sage/build/sage-5.6/local/lib/python2.7/site-packages/matplotlib/mpl-data/fonts/pdfcorefonts/Helvetica-BoldOblique.afm'
p1107
aS'/home/wstein/sage/build/sage-5.6/local/lib/python2.7/site-packages/matplotlib/mpl-data/fonts/afm/pbkdi8a.afm'
p1108
aS'/home/wstein/sage/build/sage-5.6/local/lib/python2.7/site-packages/matplotlib/mpl-data/fonts/afm/pncr8a.afm'
p1109
aS'/home/wstein/sage/build/sage-5.6/local/lib/python2.7/site-packages/matplotlib/mpl-data/fonts/afm/cmtt10.afm'
p1110
aS'/home/wstein/sage/build/sage-5.6/local/lib/python2.7/site-packages/matplotlib/mpl-data/fonts/afm/ptmr8a.afm'
p1111
aS'/home/wstein/sage/build/sage-5.6/local/lib/python2.7/site-packages/matplotlib/mpl-data/fonts/pdfcorefonts/Times-BoldItalic.afm'
p1112
aS'/home/wstein/sage/build/sage-5.6/local/lib/python2.7/site-packages/matplotlib/mpl-data/fonts/afm/cmr10.afm'
p1113
aS'/home/wstein/sage/build/sage-5.6/local/lib/python2.7/site-packages/matplotlib/mpl-data/fonts/afm/phvl8a.afm'
p1114
aS'/home/wstein/sage/build/sage-5.6/local/lib/python2.7/site-packages/matplotlib/mpl-data/fonts/afm/pncri8a.afm'
p1115
aS'/home/wstein/sage/build/sage-5.6/local/lib/python2.7/site-packages/matplotlib/mpl-data/fonts/afm/pzdr.afm'
p1116
aS'/home/wstein/sage/build/sage-5.6/local/lib/python2.7/site-packages/matplotlib/mpl-data/fonts/pdfcorefonts/Times-Roman.afm'
p1117
aS'/home/wstein/sage/build/sage-5.6/local/lib/python2.7/site-packages/matplotlib/mpl-data/fonts/afm/cmex10.afm'
p1118
aS'/usr/share/fonts/X11/Type1/lmtt10.afm'
p1119
aS'/usr/share/fonts/X11/Type1/qcsri.afm'
p1120
aS'/usr/share/fonts/X11/Type1/lmssqo8.afm'
p1121
aS'/usr/share/fonts/type1/gsfonts/b018015l.afm'
p1122
aS'/usr/share/fonts/X11/Type1/lmbxo10.afm'
p1123
aS'/usr/share/fonts/type1/gsfonts/n022024l.afm'
p1124
aS'/usr/share/fonts/X11/Type1/lmtlc10.afm'
p1125
aS'/usr/share/fonts/type1/gsfonts/n019004l.afm'
p1126
aS'/usr/share/fonts/X11/Type1/lmtk10.afm'
p1127
aS'/usr/share/fonts/X11/Type1/qbkr.afm'
p1128
aS'/usr/share/fonts/X11/Type1/lmdunh10.afm'
p1129
aS'/usr/share/fonts/type1/gsfonts/n019003l.afm'
p1130
aS'/usr/share/fonts/type1/gsfonts/p052004l.afm'
p1131
aS'/usr/share/fonts/type1/gsfonts/a010015l.afm'
p1132
aS'/usr/share/fonts/X11/Type1/qcrr.afm'
p1133
aS'/usr/share/fonts/type1/gsfonts/c059036l.afm'
p1134
aS'/usr/share/fonts/type1/gsfonts/c059013l.afm'
p1135
aS'/usr/share/fonts/X11/Type1/lmssbx10.afm'
p1136
aS'/usr/share/fonts/X11/Type1/qhvcb.afm'
p1137
aS'/usr/share/fonts/X11/Type1/qtmb.afm'
p1138
aS'/usr/share/fonts/X11/Type1/lmvtlo10.afm'
p1139
aS'/usr/share/fonts/X11/Type1/lmtcso10.afm'
p1140
aS'/usr/share/fonts/X11/Type1/lmtti10.afm'
p1141
aS'/usr/share/fonts/X11/Type1/c0419bt_.afm'
p1142
aS'/usr/share/fonts/type1/gsfonts/n021024l.afm'
p1143
aS'/usr/share/fonts/type1/gsfonts/n019024l.afm'
p1144
aS'/usr/share/fonts/X11/Type1/qhvbi.afm'
p1145
aS'/usr/share/fonts/X11/Type1/qcsb.afm'
p1146
aS'/usr/share/fonts/X11/Type1/lmbx10.afm'
p1147
aS'/usr/share/fonts/type1/gsfonts/d050000l.afm'
p1148
aS'/usr/share/fonts/X11/Type1/lmssdo10.afm'
p1149
aS'/usr/share/fonts/X11/Type1/lmssqbx8.afm'
p1150
aS'/usr/share/fonts/X11/Type1/qhvb.afm'
p1151
aS'/usr/share/fonts/X11/Type1/c0649bt_.afm'
p1152
aS'/usr/share/fonts/X11/Type1/c0648bt_.afm'
p1153
aS'/usr/share/fonts/type1/gsfonts/z003034l.afm'
p1154
aS'/usr/share/fonts/X11/Type1/qhvr.afm'
p1155
aS'/usr/share/fonts/X11/Type1/lmbxi10.afm'
p1156
aS'/usr/share/fonts/type1/gsfonts/b018012l.afm'
p1157
aS'/usr/share/fonts/X11/Type1/lmssbo10.afm'
p1158
aS'/usr/share/fonts/X11/Type1/qplr.afm'
p1159
aS'/usr/share/fonts/X11/Type1/qcsr.afm'
p1160
aS'/usr/share/fonts/type1/gsfonts/a010013l.afm'
p1161
aS'/usr/share/fonts/X11/Type1/c0583bt_.afm'
p1162
aS'/usr/share/fonts/X11/Type1/qagri.afm'
p1163
aS'/usr/share/fonts/X11/Type1/qbkbi.afm'
p1164
aS'/usr/share/fonts/X11/Type1/lmcsc10.afm'
p1165
aS'/usr/share/fonts/X11/Type1/qcrbi.afm'
p1166
aS'/usr/share/fonts/X11/Type1/qcrb.afm'
p1167
aS'/usr/share/fonts/X11/Type1/lmssqbo8.afm'
p1168
aS'/usr/share/fonts/type1/gsfonts/p052003l.afm'
p1169
aS'/usr/share/fonts/type1/gsfonts/b018032l.afm'
p1170
aS'/usr/share/fonts/X11/Type1/lmvtk10.afm'
p1171
aS'/usr/share/fonts/type1/gsfonts/n021023l.afm'
p1172
aS'/usr/share/fonts/X11/Type1/qhvri.afm'
p1173
aS'/usr/share/fonts/X11/Type1/lmtlo10.afm'
p1174
aS'/usr/share/fonts/X11/Type1/lmvtl10.afm'
p1175
aS'/usr/share/fonts/type1/gsfonts/n021003l.afm'
p1176
aS'/usr/share/fonts/X11/Type1/c0611bt_.afm'
p1177
aS'/usr/share/fonts/type1/gsfonts/s050000l.afm'
p1178
aS'/usr/share/fonts/type1/gsfonts/n021004l.afm'
p1179
aS'/usr/share/fonts/type1/gsfonts/p052024l.afm'
p1180
aS'/usr/share/fonts/X11/Type1/qtmri.afm'
p1181
aS'/usr/share/fonts/X11/Type1/qbkb.afm'
p1182
aS'/usr/share/fonts/type1/gsfonts/n019063l.afm'
p1183
aS'/usr/share/fonts/X11/Type1/qtmr.afm'
p1184
aS'/usr/share/fonts/X11/Type1/lmtcsc10.afm'
p1185
aS'/usr/share/fonts/X11/Type1/lmcsco10.afm'
p1186
aS'/usr/share/fonts/X11/Type1/qagb.afm'
p1187
aS'/usr/share/fonts/X11/Type1/c0633bt_.afm'
p1188
aS'/usr/share/fonts/X11/Type1/lmvtto10.afm'
p1189
aS'/usr/share/fonts/X11/Type1/lmss10.afm'
p1190
aS'/usr/share/fonts/X11/Type1/lmvtt10.afm'
p1191
aS'/usr/share/fonts/type1/gsfonts/b018035l.afm'
p1192
aS'/usr/share/fonts/X11/Type1/lmduno10.afm'
p1193
aS'/usr/share/fonts/X11/Type1/qtmbi.afm'
p1194
aS'/usr/share/fonts/X11/Type1/qcsbi.afm'
p1195
aS'/usr/share/fonts/type1/gsfonts/n022004l.afm'
p1196
aS'/usr/share/fonts/type1/mathml/Symbol.afm'
p1197
aS'/usr/share/fonts/X11/Type1/qhvcbi.afm'
p1198
aS'/usr/share/fonts/X11/Type1/lmri10.afm'
p1199
aS'/usr/share/fonts/X11/Type1/Symbol.afm'
p1200
aS'/usr/share/fonts/X11/Type1/lmr10.afm'
p1201
aS'/usr/share/fonts/X11/Type1/lmb10.afm'
p1202
aS'/usr/share/fonts/X11/Type1/lmtl10.afm'
p1203
aS'/usr/share/fonts/X11/Type1/qplri.afm'
p1204
aS'/usr/share/fonts/X11/Type1/qagbi.afm'
p1205
aS'/usr/share/fonts/X11/Type1/qhvcr.afm'
p1206
aS'/usr/share/fonts/X11/Type1/lmtlco10.afm'
p1207
aS'/usr/share/fonts/type1/gsfonts/c059016l.afm'
p1208
aS'/usr/share/fonts/X11/Type1/qplb.afm'
p1209
aS'/usr/share/fonts/type1/gsfonts/n019044l.afm'
p1210
aS'/usr/share/fonts/type1/gsfonts/n022003l.afm'
p1211
aS'/usr/share/fonts/type1/gsfonts/a010033l.afm'
p1212
aS'/usr/share/fonts/X11/Type1/lmvtko10.afm'
p1213
aS'/usr/share/fonts/type1/gsfonts/n019043l.afm'
p1214
aS'/usr/share/fonts/X11/Type1/qcrri.afm'
p1215
aS'/usr/share/fonts/type1/gsfonts/n019064l.afm'
p1216
aS'/usr/share/fonts/X11/Type1/c0582bt_.afm'
p1217
aS'/usr/share/fonts/X11/Type1/lmssq8.afm'
p1218
aS'/usr/share/fonts/X11/Type1/lmro10.afm'
p1219
aS'/usr/share/fonts/X11/Type1/qagr.afm'
p1220
aS'/usr/share/fonts/type1/gsfonts/c059033l.afm'
p1221
aS'/usr/share/fonts/type1/gsfonts/n019023l.afm'
p1222
aS'/usr/share/fonts/X11/Type1/lmtko10.afm'
p1223
aS'/usr/share/fonts/X11/Type1/qzcmi.afm'
p1224
aS'/usr/share/fonts/X11/Type1/lmsso10.afm'
p1225
aS'/usr/share/fonts/X11/Type1/lmbo10.afm'
p1226
aS'/usr/share/fonts/type1/gsfonts/p052023l.afm'
p1227
aS'/usr/share/fonts/X11/Type1/qplbi.afm'
p1228
aS'/usr/share/fonts/X11/Type1/lmssdc10.afm'
p1229
aS'/usr/share/fonts/X11/Type1/lmtto10.afm'
p1230
aS'/usr/share/fonts/type1/gsfonts/n022023l.afm'
p1231
aS'/usr/share/fonts/X11/Type1/qhvcri.afm'
p1232
aS'/usr/share/fonts/type1/gsfonts/a010035l.afm'
p1233
aS'/usr/share/fonts/X11/Type1/qbkri.afm'
p1234
aS'/usr/share/fonts/X11/Type1/c0632bt_.afm'
p1235
aS'/usr/share/fonts/X11/Type1/lmu10.afm'
p1236
asS'afmlist'
p1237
(lp1238
g7
(g8
g9
NtRp1239
(dp1240
g12
g49
sg14
S'Times'
p1241
sg16
I700
sg17
g13
sg18
g13
sg19
g1059
sg21
g22
sbag7
(g8
g9
NtRp1242
(dp1243
g12
g49
sg14
S'Utopia'
p1244
sg16
I400
sg17
g13
sg18
g13
sg19
g1060
sg21
g22
sbag7
(g8
g9
NtRp1245
(dp1246
g12
g49
sg14
S'Times'
p1247
sg16
I500
sg17
g13
sg18
g13
sg19
g1061
sg21
g22
sbag7
(g8
g9
NtRp1248
(dp1249
g12
g13
sg14
S'Courier'
p1250
sg16
I700
sg17
g13
sg18
g13
sg19
g1062
sg21
g22
sbag7
(g8
g9
NtRp1251
(dp1252
g12
g13
sg14
S'Helvetica'
p1253
sg16
I500
sg17
g196
sg18
g13
sg19
g1063
sg21
g22
sbag7
(g8
g9
NtRp1254
(dp1255
g12
g13
sg14
S'Utopia'
p1256
sg16
I400
sg17
g13
sg18
g13
sg19
g1064
sg21
g22
sbag7
(g8
g9
NtRp1257
(dp1258
g12
g13
sg14
S'Symbol'
p1259
sg16
I500
sg17
g13
sg18
g13
sg19
g1065
sg21
g22
sbag7
(g8
g9
NtRp1260
(dp1261
g12
g13
sg14
S'Courier'
p1262
sg16
I500
sg17
g13
sg18
g13
sg19
g1066
sg21
g22
sbag7
(g8
g9
NtRp1263
(dp1264
g12
g49
sg14
S'Courier'
p1265
sg16
I700
sg17
g13
sg18
g13
sg19
g1067
sg21
g22
sbag7
(g8
g9
NtRp1266
(dp1267
g12
g13
sg14
S'Helvetica'
p1268
sg16
I700
sg17
g196
sg18
g13
sg19
g1068
sg21
g22
sbag7
(g8
g9
NtRp1269
(dp1270
g12
g13
sg14
S'ITC Avant Garde Gothic'
p1271
sg16
I400
sg17
g13
sg18
g13
sg19
g1069
sg21
g22
sbag7
(g8
g9
NtRp1272
(dp1273
g12
g13
sg14
S'Courier'
p1274
sg16
I500
sg17
g13
sg18
g13
sg19
g1070
sg21
g22
sbag7
(g8
g9
NtRp1275
(dp1276
g12
g49
sg14
S'Helvetica'
p1277
sg16
I500
sg17
g13
sg18
g13
sg19
g1071
sg21
g22
sbag7
(g8
g9
NtRp1278
(dp1279
g12
g13
sg14
S'Symbol'
p1280
sg16
I500
sg17
g13
sg18
g13
sg19
g1072
sg21
g22
sbag7
(g8
g9
NtRp1281
(dp1282
g12
g49
sg14
S'Palatino'
p1283
sg16
I700
sg17
g13
sg18
g13
sg19
g1073
sg21
g22
sbag7
(g8
g9
NtRp1284
(dp1285
g12
g13
sg14
S'ITC Bookman'
p1286
sg16
I600
sg17
g13
sg18
g13
sg19
g1074
sg21
g22
sbag7
(g8
g9
NtRp1287
(dp1288
g12
g13
sg14
S'Palatino'
p1289
sg16
I500
sg17
g13
sg18
g13
sg19
g1075
sg21
g22
sbag7
(g8
g9
NtRp1290
(dp1291
g12
g49
sg14
S'ITC Bookman'
p1292
sg16
I200
sg17
g13
sg18
g13
sg19
g1076
sg21
g22
sbag7
(g8
g9
NtRp1293
(dp1294
g12
g49
sg14
S'ITC Zapf Chancery'
p1295
sg16
I500
sg17
g13
sg18
g13
sg19
g1077
sg21
g22
sbag7
(g8
g9
NtRp1296
(dp1297
g12
g49
sg14
S'Helvetica'
p1298
sg16
I700
sg17
g13
sg18
g13
sg19
g1078
sg21
g22
sbag7
(g8
g9
NtRp1299
(dp1300
g12
g13
sg14
S'ZapfDingbats'
p1301
sg16
I500
sg17
g13
sg18
g13
sg19
g1079
sg21
g22
sbag7
(g8
g9
NtRp1302
(dp1303
g12
g49
sg14
S'Computer Modern'
p1304
sg16
I500
sg17
g13
sg18
g13
sg19
g1080
sg21
g22
sbag7
(g8
g9
NtRp1305
(dp1306
g12
g13
sg14
S'Times'
p1307
sg16
I700
sg17
g13
sg18
g13
sg19
g1081
sg21
g22
sbag7
(g8
g9
NtRp1308
(dp1309
g12
g49
sg14
S'Times'
p1310
sg16
I500
sg17
g13
sg18
g13
sg19
g1082
sg21
g22
sbag7
(g8
g9
NtRp1311
(dp1312
g12
g49
sg14
S'New Century Schoolbook'
p1313
sg16
I700
sg17
g13
sg18
g13
sg19
g1083
sg21
g22
sbag7
(g8
g9
NtRp1314
(dp1315
g12
g49
sg14
S'Utopia'
p1316
sg16
I700
sg17
g13
sg18
g13
sg19
g1084
sg21
g22
sbag7
(g8
g9
NtRp1317
(dp1318
g12
g13
sg14
S'ITC Avant Garde Gothic'
p1319
sg16
I600
sg17
g13
sg18
g13
sg19
g1085
sg21
g22
sbag7
(g8
g9
NtRp1320
(dp1321
g12
g49
sg14
S'Courier'
p1322
sg16
I700
sg17
g13
sg18
g13
sg19
g1086
sg21
g22
sbag7
(g8
g9
NtRp1323
(dp1324
g12
g49
sg14
S'Helvetica'
p1325
sg16
I700
sg17
g196
sg18
g13
sg19
g1087
sg21
g22
sbag7
(g8
g9
NtRp1326
(dp1327
g12
g13
sg14
S'Helvetica'
p1328
sg16
I700
sg17
g13
sg18
g13
sg19
g1088
sg21
g22
sbag7
(g8
g9
NtRp1329
(dp1330
g12
g49
sg14
S'Helvetica'
p1331
sg16
I500
sg17
g196
sg18
g13
sg19
g1089
sg21
g22
sbag7
(g8
g9
NtRp1332
(dp1333
g12
g49
sg14
S'Courier'
p1334
sg16
I500
sg17
g13
sg18
g13
sg19
g1090
sg21
g22
sbag7
(g8
g9
NtRp1335
(dp1336
g12
g13
sg14
S'Helvetica'
p1337
sg16
I500
sg17
g13
sg18
g13
sg19
g1091
sg21
g22
sbag7
(g8
g9
NtRp1338
(dp1339
g12
g49
sg14
S'Helvetica'
p1340
sg16
I200
sg17
g13
sg18
g13
sg19
g1092
sg21
g22
sbag7
(g8
g9
NtRp1341
(dp1342
g12
g13
sg14
S'Helvetica'
p1343
sg16
I500
sg17
g13
sg18
g13
sg19
g1093
sg21
g22
sbag7
(g8
g9
NtRp1344
(dp1345
g12
g49
sg14
S'Computer Modern'
p1346
sg16
I500
sg17
g13
sg18
g13
sg19
g1094
sg21
g22
sbag7
(g8
g9
NtRp1347
(dp1348
g12
g49
sg14
S'Helvetica'
p1349
sg16
I500
sg17
g13
sg18
g13
sg19
g1095
sg21
g22
sbag7
(g8
g9
NtRp1350
(dp1351
g12
g13
sg14
S'Courier'
p1352
sg16
I700
sg17
g13
sg18
g13
sg19
g1096
sg21
g22
sbag7
(g8
g9
NtRp1353
(dp1354
g12
g49
sg14
S'Palatino'
p1355
sg16
I500
sg17
g13
sg18
g13
sg19
g1097
sg21
g22
sbag7
(g8
g9
NtRp1356
(dp1357
g12
g13
sg14
S'New Century Schoolbook'
p1358
sg16
I700
sg17
g13
sg18
g13
sg19
g1098
sg21
g22
sbag7
(g8
g9
NtRp1359
(dp1360
g12
g49
sg14
S'Courier'
p1361
sg16
I500
sg17
g13
sg18
g13
sg19
g1099
sg21
g22
sbag7
(g8
g9
NtRp1362
(dp1363
g12
g13
sg14
S'Palatino'
p1364
sg16
I700
sg17
g13
sg18
g13
sg19
g1100
sg21
g22
sbag7
(g8
g9
NtRp1365
(dp1366
g12
g49
sg14
S'ITC Avant Garde Gothic'
p1367
sg16
I400
sg17
g13
sg18
g13
sg19
g1101
sg21
g22
sbag7
(g8
g9
NtRp1368
(dp1369
g12
g49
sg14
S'ITC Avant Garde Gothic'
p1370
sg16
I600
sg17
g13
sg18
g13
sg19
g1102
sg21
g22
sbag7
(g8
g9
NtRp1371
(dp1372
g12
g13
sg14
S'Utopia'
p1373
sg16
I700
sg17
g13
sg18
g13
sg19
g1103
sg21
g22
sbag7
(g8
g9
NtRp1374
(dp1375
g12
g13
sg14
S'Times'
p1376
sg16
I700
sg17
g13
sg18
g13
sg19
g1104
sg21
g22
sbag7
(g8
g9
NtRp1377
(dp1378
g12
g13
sg14
S'Helvetica'
p1379
sg16
I700
sg17
g13
sg18
g13
sg19
g1105
sg21
g22
sbag7
(g8
g9
NtRp1380
(dp1381
g12
g13
sg14
S'ITC Bookman'
p1382
sg16
I200
sg17
g13
sg18
g13
sg19
g1106
sg21
g22
sbag7
(g8
g9
NtRp1383
(dp1384
g12
g49
sg14
S'Helvetica'
p1385
sg16
I700
sg17
g13
sg18
g13
sg19
g1107
sg21
g22
sbag7
(g8
g9
NtRp1386
(dp1387
g12
g49
sg14
S'ITC Bookman'
p1388
sg16
I600
sg17
g13
sg18
g13
sg19
g1108
sg21
g22
sbag7
(g8
g9
NtRp1389
(dp1390
g12
g13
sg14
S'New Century Schoolbook'
p1391
sg16
I500
sg17
g13
sg18
g13
sg19
g1109
sg21
g22
sbag7
(g8
g9
NtRp1392
(dp1393
g12
g13
sg14
S'Computer Modern'
p1394
sg16
I500
sg17
g13
sg18
g13
sg19
g1110
sg21
g22
sbag7
(g8
g9
NtRp1395
(dp1396
g12
g13
sg14
S'Times'
p1397
sg16
I500
sg17
g13
sg18
g13
sg19
g1111
sg21
g22
sbag7
(g8
g9
NtRp1398
(dp1399
g12
g49
sg14
S'Times'
p1400
sg16
I700
sg17
g13
sg18
g13
sg19
g1112
sg21
g22
sbag7
(g8
g9
NtRp1401
(dp1402
g12
g13
sg14
S'Computer Modern'
p1403
sg16
I500
sg17
g13
sg18
g13
sg19
g1113
sg21
g22
sbag7
(g8
g9
NtRp1404
(dp1405
g12
g13
sg14
S'Helvetica'
p1406
sg16
I200
sg17
g13
sg18
g13
sg19
g1114
sg21
g22
sbag7
(g8
g9
NtRp1407
(dp1408
g12
g49
sg14
S'New Century Schoolbook'
p1409
sg16
I500
sg17
g13
sg18
g13
sg19
g1115
sg21
g22
sbag7
(g8
g9
NtRp1410
(dp1411
g12
g13
sg14
S'ITC Zapf Dingbats'
p1412
sg16
I500
sg17
g13
sg18
g13
sg19
g1116
sg21
g22
sbag7
(g8
g9
NtRp1413
(dp1414
g12
g13
sg14
S'Times'
p1415
sg16
I500
sg17
g13
sg18
g13
sg19
g1117
sg21
g22
sbag7
(g8
g9
NtRp1416
(dp1417
g12
g13
sg14
S'Computer Modern'
p1418
sg16
I500
sg17
g13
sg18
g13
sg19
g1118
sg21
g22
sbag7
(g8
g9
NtRp1419
(dp1420
g12
g13
sg14
S'LMMono10'
p1421
sg16
I400
sg17
g13
sg18
g13
sg19
g1119
sg21
g22
sbag7
(g8
g9
NtRp1422
(dp1423
g12
g49
sg14
S'TeXGyreSchola'
p1424
sg16
I400
sg17
g13
sg18
g13
sg19
g1120
sg21
g22
sbag7
(g8
g9
NtRp1425
(dp1426
g12
g49
sg14
S'LMSansQuot8'
p1427
sg16
I400
sg17
g13
sg18
g13
sg19
g1121
sg21
g22
sbag7
(g8
g9
NtRp1428
(dp1429
g12
g13
sg14
S'URW Bookman L'
p1430
sg16
I700
sg17
g13
sg18
g13
sg19
g1122
sg21
g22
sbag7
(g8
g9
NtRp1431
(dp1432
g12
g49
sg14
S'LMRomanSlant10'
p1433
sg16
I700
sg17
g13
sg18
g13
sg19
g1123
sg21
g22
sbag7
(g8
g9
NtRp1434
(dp1435
g12
g49
sg14
S'Nimbus Mono L'
p1436
sg16
I700
sg17
g13
sg18
g13
sg19
g1124
sg21
g22
sbag7
(g8
g9
NtRp1437
(dp1438
g12
g13
sg14
S'LMMonoLtCond10'
p1439
sg16
I200
sg17
g196
sg18
g13
sg19
g1125
sg21
g22
sbag7
(g8
g9
NtRp1440
(dp1441
g12
g13
sg14
S'Nimbus Sans L'
p1442
sg16
I700
sg17
g13
sg18
g13
sg19
g1126
sg21
g22
sbag7
(g8
g9
NtRp1443
(dp1444
g12
g13
sg14
S'LMMonoLt10'
p1445
sg16
I700
sg17
g13
sg18
g13
sg19
g1127
sg21
g22
sbag7
(g8
g9
NtRp1446
(dp1447
g12
g13
sg14
S'TeXGyreBonum'
p1448
sg16
I400
sg17
g13
sg18
g13
sg19
g1128
sg21
g22
sbag7
(g8
g9
NtRp1449
(dp1450
g12
g13
sg14
S'LMRomanDunh10'
p1451
sg16
I400
sg17
g13
sg18
g13
sg19
g1129
sg21
g22
sbag7
(g8
g9
NtRp1452
(dp1453
g12
g13
sg14
S'Nimbus Sans L'
p1454
sg16
I400
sg17
g13
sg18
g13
sg19
g1130
sg21
g22
sbag7
(g8
g9
NtRp1455
(dp1456
g12
g13
sg14
S'URW Palladio L'
p1457
sg16
I700
sg17
g13
sg18
g13
sg19
g1131
sg21
g22
sbag7
(g8
g9
NtRp1458
(dp1459
g12
g13
sg14
S'URW Gothic L'
p1460
sg16
I600
sg17
g13
sg18
g13
sg19
g1132
sg21
g22
sbag7
(g8
g9
NtRp1461
(dp1462
g12
g13
sg14
S'TeXGyreCursor'
p1463
sg16
I400
sg17
g13
sg18
g13
sg19
g1133
sg21
g22
sbag7
(g8
g9
NtRp1464
(dp1465
g12
g49
sg14
S'Century Schoolbook L'
p1466
sg16
I700
sg17
g13
sg18
g13
sg19
g1134
sg21
g22
sbag7
(g8
g9
NtRp1467
(dp1468
g12
g13
sg14
S'Century Schoolbook L'
p1469
sg16
I500
sg17
g13
sg18
g13
sg19
g1135
sg21
g22
sbag7
(g8
g9
NtRp1470
(dp1471
g12
g13
sg14
S'LMSans10'
p1472
sg16
I700
sg17
g13
sg18
g13
sg19
g1136
sg21
g22
sbag7
(g8
g9
NtRp1473
(dp1474
g12
g13
sg14
S'TeXGyreHerosCondensed'
p1475
sg16
I700
sg17
g196
sg18
g13
sg19
g1137
sg21
g22
sbag7
(g8
g9
NtRp1476
(dp1477
g12
g13
sg14
S'TeXGyreTermes'
p1478
sg16
I700
sg17
g13
sg18
g13
sg19
g1138
sg21
g22
sbag7
(g8
g9
NtRp1479
(dp1480
g12
g49
sg14
S'LMMonoPropLt10'
p1481
sg16
I200
sg17
g13
sg18
g13
sg19
g1139
sg21
g22
sbag7
(g8
g9
NtRp1482
(dp1483
g12
g49
sg14
S'LMMonoCaps10'
p1484
sg16
I400
sg17
g13
sg18
g13
sg19
g1140
sg21
g22
sbag7
(g8
g9
NtRp1485
(dp1486
g12
g49
sg14
S'LMMono10'
p1487
sg16
I400
sg17
g13
sg18
g13
sg19
g1141
sg21
g22
sbag7
(g8
g9
NtRp1488
(dp1489
g12
g13
sg14
S'Courier 10 Pitch'
p1490
sg16
I400
sg17
g13
sg18
g13
sg19
g1142
sg21
g22
sbag7
(g8
g9
NtRp1491
(dp1492
g12
g49
sg14
S'Nimbus Roman No9 L'
p1493
sg16
I700
sg17
g13
sg18
g13
sg19
g1143
sg21
g22
sbag7
(g8
g9
NtRp1494
(dp1495
g12
g49
sg14
S'Nimbus Sans L'
p1496
sg16
I700
sg17
g13
sg18
g13
sg19
g1144
sg21
g22
sbag7
(g8
g9
NtRp1497
(dp1498
g12
g49
sg14
S'TeXGyreHeros'
p1499
sg16
I700
sg17
g13
sg18
g13
sg19
g1145
sg21
g22
sbag7
(g8
g9
NtRp1500
(dp1501
g12
g13
sg14
S'TeXGyreSchola'
p1502
sg16
I700
sg17
g13
sg18
g13
sg19
g1146
sg21
g22
sbag7
(g8
g9
NtRp1503
(dp1504
g12
g13
sg14
S'LMRoman10'
p1505
sg16
I700
sg17
g13
sg18
g13
sg19
g1147
sg21
g22
sbag7
(g8
g9
NtRp1506
(dp1507
g12
g13
sg14
S'Dingbats'
p1508
sg16
I400
sg17
g13
sg18
g13
sg19
g1148
sg21
g22
sbag7
(g8
g9
NtRp1509
(dp1510
g12
g49
sg14
S'LMSansDemiCond10'
p1511
sg16
I600
sg17
g196
sg18
g13
sg19
g1149
sg21
g22
sbag7
(g8
g9
NtRp1512
(dp1513
g12
g13
sg14
S'LMSansQuot8'
p1514
sg16
I700
sg17
g13
sg18
g13
sg19
g1150
sg21
g22
sbag7
(g8
g9
NtRp1515
(dp1516
g12
g13
sg14
S'TeXGyreHeros'
p1517
sg16
I700
sg17
g13
sg18
g13
sg19
g1151
sg21
g22
sbag7
(g8
g9
NtRp1518
(dp1519
g12
g49
sg14
S'Bitstream Charter'
p1520
sg16
I400
sg17
g13
sg18
g13
sg19
g1152
sg21
g22
sbag7
(g8
g9
NtRp1521
(dp1522
g12
g13
sg14
S'Bitstream Charter'
p1523
sg16
I400
sg17
g13
sg18
g13
sg19
g1153
sg21
g22
sbag7
(g8
g9
NtRp1524
(dp1525
g12
g49
sg14
S'URW Chancery L'
p1526
sg16
I500
sg17
g13
sg18
g13
sg19
g1154
sg21
g22
sbag7
(g8
g9
NtRp1527
(dp1528
g12
g13
sg14
S'TeXGyreHeros'
p1529
sg16
I400
sg17
g13
sg18
g13
sg19
g1155
sg21
g22
sbag7
(g8
g9
NtRp1530
(dp1531
g12
g49
sg14
S'LMRoman10'
p1532
sg16
I700
sg17
g13
sg18
g13
sg19
g1156
sg21
g22
sbag7
(g8
g9
NtRp1533
(dp1534
g12
g13
sg14
S'URW Bookman L'
p1535
sg16
I400
sg17
g13
sg18
g13
sg19
g1157
sg21
g22
sbag7
(g8
g9
NtRp1536
(dp1537
g12
g49
sg14
S'LMSans10'
p1538
sg16
I700
sg17
g13
sg18
g13
sg19
g1158
sg21
g22
sbag7
(g8
g9
NtRp1539
(dp1540
g12
g13
sg14
S'TeXGyrePagella'
p1541
sg16
I400
sg17
g13
sg18
g13
sg19
g1159
sg21
g22
sbag7
(g8
g9
NtRp1542
(dp1543
g12
g13
sg14
S'TeXGyreSchola'
p1544
sg16
I400
sg17
g13
sg18
g13
sg19
g1160
sg21
g22
sbag7
(g8
g9
NtRp1545
(dp1546
g12
g13
sg14
S'URW Gothic L'
p1547
sg16
I400
sg17
g13
sg18
g13
sg19
g1161
sg21
g22
sbag7
(g8
g9
NtRp1548
(dp1549
g12
g13
sg14
S'Courier 10 Pitch'
p1550
sg16
I700
sg17
g13
sg18
g13
sg19
g1162
sg21
g22
sbag7
(g8
g9
NtRp1551
(dp1552
g12
g49
sg14
S'TeXGyreAdventor'
p1553
sg16
I400
sg17
g13
sg18
g13
sg19
g1163
sg21
g22
sbag7
(g8
g9
NtRp1554
(dp1555
g12
g49
sg14
S'TeXGyreBonum'
p1556
sg16
I700
sg17
g13
sg18
g13
sg19
g1164
sg21
g22
sbag7
(g8
g9
NtRp1557
(dp1558
g12
g13
sg14
S'LMRomanCaps10'
p1559
sg16
I400
sg17
g13
sg18
g13
sg19
g1165
sg21
g22
sbag7
(g8
g9
NtRp1560
(dp1561
g12
g49
sg14
S'TeXGyreCursor'
p1562
sg16
I700
sg17
g13
sg18
g13
sg19
g1166
sg21
g22
sbag7
(g8
g9
NtRp1563
(dp1564
g12
g13
sg14
S'TeXGyreCursor'
p1565
sg16
I700
sg17
g13
sg18
g13
sg19
g1167
sg21
g22
sbag7
(g8
g9
NtRp1566
(dp1567
g12
g49
sg14
S'LMSansQuot8'
p1568
sg16
I700
sg17
g13
sg18
g13
sg19
g1168
sg21
g22
sbag7
(g8
g9
NtRp1569
(dp1570
g12
g13
sg14
S'URW Palladio L'
p1571
sg16
I500
sg17
g13
sg18
g13
sg19
g1169
sg21
g22
sbag7
(g8
g9
NtRp1572
(dp1573
g12
g49
sg14
S'URW Bookman L'
p1574
sg16
I400
sg17
g13
sg18
g13
sg19
g1170
sg21
g22
sbag7
(g8
g9
NtRp1575
(dp1576
g12
g13
sg14
S'LMMonoPropLt10'
p1577
sg16
I700
sg17
g13
sg18
g13
sg19
g1171
sg21
g22
sbag7
(g8
g9
NtRp1578
(dp1579
g12
g49
sg14
S'Nimbus Roman No9 L'
p1580
sg16
I400
sg17
g13
sg18
g13
sg19
g1172
sg21
g22
sbag7
(g8
g9
NtRp1581
(dp1582
g12
g49
sg14
S'TeXGyreHeros'
p1583
sg16
I400
sg17
g13
sg18
g13
sg19
g1173
sg21
g22
sbag7
(g8
g9
NtRp1584
(dp1585
g12
g49
sg14
S'LMMonoLt10'
p1586
sg16
I200
sg17
g13
sg18
g13
sg19
g1174
sg21
g22
sbag7
(g8
g9
NtRp1587
(dp1588
g12
g13
sg14
S'LMMonoPropLt10'
p1589
sg16
I200
sg17
g13
sg18
g13
sg19
g1175
sg21
g22
sbag7
(g8
g9
NtRp1590
(dp1591
g12
g13
sg14
S'Nimbus Roman No9 L'
p1592
sg16
I400
sg17
g13
sg18
g13
sg19
g1176
sg21
g22
sbag7
(g8
g9
NtRp1593
(dp1594
g12
g49
sg14
S'Courier 10 Pitch'
p1595
sg16
I700
sg17
g13
sg18
g13
sg19
g1177
sg21
g22
sbag7
(g8
g9
NtRp1596
(dp1597
g12
g13
sg14
S'Standard Symbols L'
p1598
sg16
I400
sg17
g13
sg18
g13
sg19
g1178
sg21
g22
sbag7
(g8
g9
NtRp1599
(dp1600
g12
g13
sg14
S'Nimbus Roman No9 L'
p1601
sg16
I700
sg17
g13
sg18
g13
sg19
g1179
sg21
g22
sbag7
(g8
g9
NtRp1602
(dp1603
g12
g49
sg14
S'URW Palladio L'
p1604
sg16
I700
sg17
g13
sg18
g13
sg19
g1180
sg21
g22
sbag7
(g8
g9
NtRp1605
(dp1606
g12
g49
sg14
S'TeXGyreTermes'
p1607
sg16
I400
sg17
g13
sg18
g13
sg19
g1181
sg21
g22
sbag7
(g8
g9
NtRp1608
(dp1609
g12
g13
sg14
S'TeXGyreBonum'
p1610
sg16
I700
sg17
g13
sg18
g13
sg19
g1182
sg21
g22
sbag7
(g8
g9
NtRp1611
(dp1612
g12
g49
sg14
S'Nimbus Sans L'
p1613
sg16
I400
sg17
g196
sg18
g13
sg19
g1183
sg21
g22
sbag7
(g8
g9
NtRp1614
(dp1615
g12
g13
sg14
S'TeXGyreTermes'
p1616
sg16
I400
sg17
g13
sg18
g13
sg19
g1184
sg21
g22
sbag7
(g8
g9
NtRp1617
(dp1618
g12
g13
sg14
S'LMMonoCaps10'
p1619
sg16
I400
sg17
g13
sg18
g13
sg19
g1185
sg21
g22
sbag7
(g8
g9
NtRp1620
(dp1621
g12
g49
sg14
S'LMRomanCaps10'
p1622
sg16
I400
sg17
g13
sg18
g13
sg19
g1186
sg21
g22
sbag7
(g8
g9
NtRp1623
(dp1624
g12
g13
sg14
S'TeXGyreAdventor'
p1625
sg16
I700
sg17
g13
sg18
g13
sg19
g1187
sg21
g22
sbag7
(g8
g9
NtRp1626
(dp1627
g12
g49
sg14
S'Bitstream Charter'
p1628
sg16
I700
sg17
g13
sg18
g13
sg19
g1188
sg21
g22
sbag7
(g8
g9
NtRp1629
(dp1630
g12
g49
sg14
S'LMMonoProp10'
p1631
sg16
I400
sg17
g13
sg18
g13
sg19
g1189
sg21
g22
sbag7
(g8
g9
NtRp1632
(dp1633
g12
g13
sg14
S'LMSans10'
p1634
sg16
I400
sg17
g13
sg18
g13
sg19
g1190
sg21
g22
sbag7
(g8
g9
NtRp1635
(dp1636
g12
g13
sg14
S'LMMonoProp10'
p1637
sg16
I400
sg17
g13
sg18
g13
sg19
g1191
sg21
g22
sbag7
(g8
g9
NtRp1638
(dp1639
g12
g49
sg14
S'URW Bookman L'
p1640
sg16
I700
sg17
g13
sg18
g13
sg19
g1192
sg21
g22
sbag7
(g8
g9
NtRp1641
(dp1642
g12
g49
sg14
S'LMRomanDunh10'
p1643
sg16
I400
sg17
g13
sg18
g13
sg19
g1193
sg21
g22
sbag7
(g8
g9
NtRp1644
(dp1645
g12
g49
sg14
S'TeXGyreTermes'
p1646
sg16
I700
sg17
g13
sg18
g13
sg19
g1194
sg21
g22
sbag7
(g8
g9
NtRp1647
(dp1648
g12
g49
sg14
S'TeXGyreSchola'
p1649
sg16
I400
sg17
g13
sg18
g13
sg19
g1195
sg21
g22
sbag7
(g8
g9
NtRp1650
(dp1651
g12
g13
sg14
S'Nimbus Mono L'
p1652
sg16
I700
sg17
g13
sg18
g13
sg19
g1196
sg21
g22
sbag7
(g8
g9
NtRp1653
(dp1654
g12
g49
sg14
S'TeXGyreHerosCondensed'
p1655
sg16
I700
sg17
g196
sg18
g13
sg19
g1198
sg21
g22
sbag7
(g8
g9
NtRp1656
(dp1657
g12
g49
sg14
S'LMRoman10'
p1658
sg16
I400
sg17
g13
sg18
g13
sg19
g1199
sg21
g22
sbag7
(g8
g9
NtRp1659
(dp1660
g12
g13
sg14
S'LMRoman10'
p1661
sg16
I400
sg17
g13
sg18
g13
sg19
g1201
sg21
g22
sbag7
(g8
g9
NtRp1662
(dp1663
g12
g13
sg14
S'LMRomanDemi10'
p1664
sg16
I600
sg17
g13
sg18
g13
sg19
g1202
sg21
g22
sbag7
(g8
g9
NtRp1665
(dp1666
g12
g13
sg14
S'LMMonoLt10'
p1667
sg16
I200
sg17
g13
sg18
g13
sg19
g1203
sg21
g22
sbag7
(g8
g9
NtRp1668
(dp1669
g12
g49
sg14
S'TeXGyrePagella'
p1670
sg16
I400
sg17
g13
sg18
g13
sg19
g1204
sg21
g22
sbag7
(g8
g9
NtRp1671
(dp1672
g12
g49
sg14
S'TeXGyreAdventor'
p1673
sg16
I700
sg17
g13
sg18
g13
sg19
g1205
sg21
g22
sbag7
(g8
g9
NtRp1674
(dp1675
g12
g13
sg14
S'TeXGyreHerosCondensed'
p1676
sg16
I400
sg17
g196
sg18
g13
sg19
g1206
sg21
g22
sbag7
(g8
g9
NtRp1677
(dp1678
g12
g49
sg14
S'LMMonoLtCond10'
p1679
sg16
I200
sg17
g196
sg18
g13
sg19
g1207
sg21
g22
sbag7
(g8
g9
NtRp1680
(dp1681
g12
g13
sg14
S'Century Schoolbook L'
p1682
sg16
I700
sg17
g13
sg18
g13
sg19
g1208
sg21
g22
sbag7
(g8
g9
NtRp1683
(dp1684
g12
g13
sg14
S'TeXGyrePagella'
p1685
sg16
I700
sg17
g13
sg18
g13
sg19
g1209
sg21
g22
sbag7
(g8
g9
NtRp1686
(dp1687
g12
g13
sg14
S'Nimbus Sans L'
p1688
sg16
I700
sg17
g196
sg18
g13
sg19
g1210
sg21
g22
sbag7
(g8
g9
NtRp1689
(dp1690
g12
g13
sg14
S'Nimbus Mono L'
p1691
sg16
I400
sg17
g13
sg18
g13
sg19
g1211
sg21
g22
sbag7
(g8
g9
NtRp1692
(dp1693
g12
g49
sg14
S'URW Gothic L'
p1694
sg16
I400
sg17
g13
sg18
g13
sg19
g1212
sg21
g22
sbag7
(g8
g9
NtRp1695
(dp1696
g12
g49
sg14
S'LMMonoPropLt10'
p1697
sg16
I700
sg17
g13
sg18
g13
sg19
g1213
sg21
g22
sbag7
(g8
g9
NtRp1698
(dp1699
g12
g13
sg14
S'Nimbus Sans L'
p1700
sg16
I400
sg17
g196
sg18
g13
sg19
g1214
sg21
g22
sbag7
(g8
g9
NtRp1701
(dp1702
g12
g49
sg14
S'TeXGyreCursor'
p1703
sg16
I400
sg17
g13
sg18
g13
sg19
g1215
sg21
g22
sbag7
(g8
g9
NtRp1704
(dp1705
g12
g49
sg14
S'Nimbus Sans L'
p1706
sg16
I700
sg17
g196
sg18
g13
sg19
g1216
sg21
g22
sbag7
(g8
g9
NtRp1707
(dp1708
g12
g49
sg14
S'Courier 10 Pitch'
p1709
sg16
I400
sg17
g13
sg18
g13
sg19
g1217
sg21
g22
sbag7
(g8
g9
NtRp1710
(dp1711
g12
g13
sg14
S'LMSansQuot8'
p1712
sg16
I400
sg17
g13
sg18
g13
sg19
g1218
sg21
g22
sbag7
(g8
g9
NtRp1713
(dp1714
g12
g49
sg14
S'LMRomanSlant10'
p1715
sg16
I400
sg17
g13
sg18
g13
sg19
g1219
sg21
g22
sbag7
(g8
g9
NtRp1716
(dp1717
g12
g13
sg14
S'TeXGyreAdventor'
p1718
sg16
I400
sg17
g13
sg18
g13
sg19
g1220
sg21
g22
sbag7
(g8
g9
NtRp1719
(dp1720
g12
g49
sg14
S'Century Schoolbook L'
p1721
sg16
I400
sg17
g13
sg18
g13
sg19
g1221
sg21
g22
sbag7
(g8
g9
NtRp1722
(dp1723
g12
g49
sg14
S'Nimbus Sans L'
p1724
sg16
I400
sg17
g13
sg18
g13
sg19
g1222
sg21
g22
sbag7
(g8
g9
NtRp1725
(dp1726
g12
g49
sg14
S'LMMonoLt10'
p1727
sg16
I700
sg17
g13
sg18
g13
sg19
g1223
sg21
g22
sbag7
(g8
g9
NtRp1728
(dp1729
g12
g49
sg14
S'TeXGyreChorus'
p1730
sg16
I500
sg17
g13
sg18
g13
sg19
g1224
sg21
g22
sbag7
(g8
g9
NtRp1731
(dp1732
g12
g49
sg14
S'LMSans10'
p1733
sg16
I400
sg17
g13
sg18
g13
sg19
g1225
sg21
g22
sbag7
(g8
g9
NtRp1734
(dp1735
g12
g49
sg14
S'LMRomanDemi10'
p1736
sg16
I600
sg17
g13
sg18
g13
sg19
g1226
sg21
g22
sbag7
(g8
g9
NtRp1737
(dp1738
g12
g49
sg14
S'URW Palladio L'
p1739
sg16
I400
sg17
g13
sg18
g13
sg19
g1227
sg21
g22
sbag7
(g8
g9
NtRp1740
(dp1741
g12
g49
sg14
S'TeXGyrePagella'
p1742
sg16
I700
sg17
g13
sg18
g13
sg19
g1228
sg21
g22
sbag7
(g8
g9
NtRp1743
(dp1744
g12
g13
sg14
S'LMSansDemiCond10'
p1745
sg16
I600
sg17
g196
sg18
g13
sg19
g1229
sg21
g22
sbag7
(g8
g9
NtRp1746
(dp1747
g12
g49
sg14
S'LMMonoSlant10'
p1748
sg16
I400
sg17
g13
sg18
g13
sg19
g1230
sg21
g22
sbag7
(g8
g9
NtRp1749
(dp1750
g12
g49
sg14
S'Nimbus Mono L'
p1751
sg16
I400
sg17
g13
sg18
g13
sg19
g1231
sg21
g22
sbag7
(g8
g9
NtRp1752
(dp1753
g12
g49
sg14
S'TeXGyreHerosCondensed'
p1754
sg16
I400
sg17
g196
sg18
g13
sg19
g1232
sg21
g22
sbag7
(g8
g9
NtRp1755
(dp1756
g12
g49
sg14
S'URW Gothic L'
p1757
sg16
I600
sg17
g13
sg18
g13
sg19
g1233
sg21
g22
sbag7
(g8
g9
NtRp1758
(dp1759
g12
g49
sg14
S'TeXGyreBonum'
p1760
sg16
I400
sg17
g13
sg18
g13
sg19
g1234
sg21
g22
sbag7
(g8
g9
NtRp1761
(dp1762
g12
g13
sg14
S'Bitstream Charter'
p1763
sg16
I700
sg17
g13
sg18
g13
sg19
g1235
sg21
g22
sbag7
(g8
g9
NtRp1764
(dp1765
g12
g13
sg14
S'LMRomanUnsl10'
p1766
sg16
I400
sg17
g13
sg18
g13
sg19
g1236
sg21
g22
sbasb.